(lp1
F0.00088059902191162109
aF0.0034838438034057615
aF0.0075558900833129885
aF0.013414907455444335
aF0.021463632583618164
aF0.030776166915893556
aF0.042210698127746582
aF0.054714560508728027
aF0.070080113410949704
aF0.088618206977844241
a.