(lp1
(lp2
(lp3
I185568
aa(lp4
I185776
aa(lp5
I185704
aa(lp6
I185672
aa(lp7
I185568
aa(lp8
I185776
aa(lp9
I185704
aa(lp10
I185672
aa(lp11
I185568
aa(lp12
I185776
aaa(lp13
(lp14
I185776
aa(lp15
I185568
aa(lp16
I185776
aa(lp17
I185704
aa(lp18
I185776
aa(lp19
I185568
aa(lp20
I185776
aa(lp21
I185704
aa(lp22
I185776
aa(lp23
I185704
aaa(lp24
(lp25
I185704
aa(lp26
I185776
aa(lp27
I185704
aa(lp28
I185776
aa(lp29
I185704
aa(lp30
I185776
aa(lp31
I185568
aa(lp32
I185776
aa(lp33
I185704
aa(lp34
I185776
aaa.