(lp1
(lp2
(lp3
F0.070609092712402344
aF0.071269989013671875
aF0.069500923156738281
aF0.069101095199584961
aF0.073105812072753906
aF0.068798065185546875
aF0.070094108581542969
aF0.069198131561279297
aF0.069941043853759766
aF0.071253061294555664
aa(lp4
F0.2782599925994873
aF0.28130388259887695
aF0.28162598609924316
aF0.27706003189086914
aF0.28131604194641113
aF0.27995395660400391
aF0.27936601638793945
aF0.28223681449890137
aF0.28028202056884766
aF0.28942322731018066
aa(lp5
F0.63248300552368164
aF0.62669205665588379
aF0.62693405151367188
aF0.64107298851013184
aF0.63694906234741211
aF0.64458990097045898
aF0.63650298118591309
aF0.63273882865905762
aF0.64340400695800781
aF0.63682293891906738
aa(lp6
F1.1404159069061279
aF1.1202690601348877
aF1.131166934967041
aF1.1288471221923828
aF1.130687952041626
aF1.1359949111938477
aF1.1288120746612549
aF1.1385469436645508
aF1.1375951766967773
aF1.1362378597259521
aa(lp7
F1.7693099975585938
aF1.7783031463623047
aF1.7793700695037842
aF1.7787559032440186
aF1.8207938671112061
aF1.7851991653442383
aF1.774975061416626
aF1.7864620685577393
aF1.7868690490722656
aF1.7865841388702393
aa(lp8
F2.5799691677093506
aF2.561143159866333
aF2.5760331153869629
aF2.5860440731048584
aF2.5669419765472412
aF2.5691690444946289
aF2.5704069137573242
aF2.5715620517730713
aF2.5834591388702393
aF2.5823588371276855
aa(lp9
F3.5173380374908447
aF3.5105350017547607
aF3.5114660263061523
aF3.5254809856414795
aF3.5173189640045166
aF3.5161669254302979
aF3.5263760089874268
aF3.515207052230835
aF3.5221822261810303
aF3.5385589599609375
aa(lp10
F4.6090128421783447
aF4.6128139495849609
aF4.6201179027557373
aF4.6175658702850342
aF4.6160190105438232
aF4.6179850101470947
aF4.6306700706481934
aF4.6354959011077881
aF4.6308491230010986
aF4.6316261291503906
aa(lp11
F5.8763740062713623
aF5.8856039047241211
aF5.9952230453491211
aF5.8821439743041992
aF5.9042420387268066
aF5.8977859020233154
aF5.8966820240020752
aF5.8905680179595947
aF5.9010801315307617
aF5.9055910110473633
aa(lp12
F7.3107078075408936
aF7.3042778968811035
aF7.3332200050354004
aF7.3132698535919189
aF7.295320987701416
aF7.3244791030883789
aF7.3071379661560059
aF7.3131129741668701
aF7.3264079093933105
aF7.34763503074646
aaa(lp13
(lp14
F0.0073039531707763672
aF0.0073521137237548828
aF0.0072112083435058594
aF0.0072138309478759766
aF0.0073499679565429688
aF0.0072309970855712891
aF0.0071887969970703125
aF0.0073690414428710938
aF0.0073091983795166016
aF0.0073459148406982422
aa(lp15
F0.015225887298583984
aF0.015308856964111328
aF0.01517796516418457
aF0.015141963958740234
aF0.015197038650512695
aF0.015089035034179688
aF0.015227079391479492
aF0.01501917839050293
aF0.015088081359863281
aF0.015077114105224609
aa(lp16
F0.027371883392333984
aF0.027326107025146484
aF0.027268886566162109
aF0.027508020401000977
aF0.027346134185791016
aF0.027233123779296875
aF0.026854038238525391
aF0.027119874954223633
aF0.026973962783813477
aF0.027112007141113281
aa(lp17
F0.031597137451171875
aF0.031653165817260742
aF0.031672954559326172
aF0.033857822418212891
aF0.032029151916503906
aF0.031867027282714844
aF0.031605005264282227
aF0.03202509880065918
aF0.03212285041809082
aF0.031640052795410156
aa(lp18
F0.043768167495727539
aF0.043712139129638672
aF0.043730020523071289
aF0.044831037521362305
aF0.044744968414306641
aF0.044467926025390625
aF0.043684005737304688
aF0.044129133224487305
aF0.043796062469482422
aF0.043935060501098633
aa(lp19
F0.056259870529174805
aF0.056506156921386719
aF0.056249856948852539
aF0.056541919708251953
aF0.056231021881103516
aF0.057996034622192383
aF0.056978940963745117
aF0.056591987609863281
aF0.05633997917175293
aF0.056334972381591797
aa(lp20
F0.061800956726074219
aF0.062201976776123047
aF0.062997102737426758
aF0.062927007675170898
aF0.061714887619018555
aF0.061973094940185547
aF0.063190937042236328
aF0.06301116943359375
aF0.062064170837402344
aF0.063334941864013672
aa(lp21
F0.066618204116821289
aF0.06845402717590332
aF0.066489934921264648
aF0.067760944366455078
aF0.067368984222412109
aF0.066951990127563477
aF0.067441940307617188
aF0.067898035049438477
aF0.066557884216308594
aF0.066817998886108398
aa(lp22
F0.078860998153686523
aF0.079043149948120117
aF0.078449010848999023
aF0.079201221466064453
aF0.078543186187744141
aF0.082278013229370117
aF0.0784759521484375
aF0.078804969787597656
aF0.080750942230224609
aF0.079062938690185547
aa(lp23
F0.094763994216918945
aF0.093131065368652344
aF0.091592073440551758
aF0.091787099838256836
aF0.091837167739868164
aF0.092228174209594727
aF0.093974113464355469
aF0.092906951904296875
aF0.092061042785644531
aF0.092550039291381836
aaa(lp24
(lp25
F0.00021886825561523438
aF0.00020599365234375
aF0.00020098686218261719
aF0.00021409988403320312
aF0.0002079010009765625
aF0.00020480155944824219
aF0.00020480155944824219
aF0.00020503997802734375
aF0.00020003318786621094
aF0.00020194053649902344
aa(lp26
F0.00039601325988769531
aF0.00040388107299804688
aF0.00040912628173828125
aF0.00039887428283691406
aF0.00040292739868164062
aF0.00040793418884277344
aF0.00040197372436523438
aF0.00039601325988769531
aF0.00040984153747558594
aF0.00040602684020996094
aa(lp27
F0.00060915946960449219
aF0.00060105323791503906
aF0.00060915946960449219
aF0.00060987472534179688
aF0.00060296058654785156
aF0.00060391426086425781
aF0.00060606002807617188
aF0.0005970001220703125
aF0.00061202049255371094
aF0.0006198883056640625
aa(lp28
F0.00080704689025878906
aF0.00081896781921386719
aF0.00080990791320800781
aF0.00080418586730957031
aF0.00079798698425292969
aF0.00080180168151855469
aF0.00081205368041992188
aF0.00080800056457519531
aF0.00082087516784667969
aF0.00081300735473632812
aa(lp29
F0.0011050701141357422
aF0.0010151863098144531
aF0.0010130405426025391
aF0.0010128021240234375
aF0.0010278224945068359
aF0.0010151863098144531
aF0.0010011196136474609
aF0.0010149478912353516
aF0.0010290145874023438
aF0.0010421276092529297
aa(lp30
F0.0012249946594238281
aF0.0012137889862060547
aF0.0012269020080566406
aF0.0012161731719970703
aF0.0011899471282958984
aF0.0012109279632568359
aF0.0012340545654296875
aF0.0011961460113525391
aF0.0012290477752685547
aF0.0012061595916748047
aa(lp31
F0.0014119148254394531
aF0.0013871192932128906
aF0.0013980865478515625
aF0.0014519691467285156
aF0.001399993896484375
aF0.0014219284057617188
aF0.0014061927795410156
aF0.0014269351959228516
aF0.001438140869140625
aF0.001438140869140625
aa(lp32
F0.0016400814056396484
aF0.0016379356384277344
aF0.0016210079193115234
aF0.0015997886657714844
aF0.0016188621520996094
aF0.0016279220581054688
aF0.0016021728515625
aF0.0016191005706787109
aF0.0015990734100341797
aF0.0016260147094726562
aa(lp33
F0.0018060207366943359
aF0.0018260478973388672
aF0.0018148422241210938
aF0.0018401145935058594
aF0.0018329620361328125
aF0.0018780231475830078
aF0.0018379688262939453
aF0.0018031597137451172
aF0.0018479824066162109
aF0.0018329620361328125
aa(lp34
F0.0020380020141601562
aF0.002017974853515625
aF0.0020568370819091797
aF0.0020592212677001953
aF0.0020449161529541016
aF0.0020279884338378906
aF0.0020518302917480469
aF0.0020189285278320312
aF0.0020368099212646484
aF0.0020229816436767578
aaa.