(lp0
I21
aI20
aI19
aI18
aI17
aI133
aI132
aI131
aI130
aI129
aI128
aI127
aI126
aI125
aI30
aI31
aI32
aI29
aI28
aI27
aI26
aI22
aI25
aI23
aI24
aI14
aI13
aI12
aI11
aI10
aI8
aI7
aI9
aI275
aI274
aI273
aI272
aI271
aI16
aI15
aI270
aI134
aI135
aI136
aI137
aI138
aI139
aI140
aI141
aI142
aI143
aI144
aI145
aI146
aI147
aI148
aI149
aI150
aI178
aI151
aI152
aI156
aI153
aI155
aI154
aI122
aI121
aI120
aI119
aI157
aI158
aI159
aI160
aI175
aI161
aI162
aI163
aI164
aI165
aI166
aI167
aI168
aI169
aI101
aI100
aI99
aI98
aI93
aI94
aI95
aI96
aI97
aI92
aI91
aI90
aI89
aI109
aI108
aI104
aI103
aI102
aI170
aI171
aI171
aI173
aI106
aI105
aI107
aI174
aI110
aI111
aI114
aI113
aI87
aI84
aI83
aI82
aI81
aI80
aI79
aI76
aI75
aI74
aI73
aI72
aI71
aI70
aI67
aI66
aI65
aI64
aI63
aI62
aI118
aI61
aI60
aI43
aI42
aI41
aI40
aI39
aI38
aI37
aI36
aI35
aI34
aI33
aI124
aI123
aI177
aI176
aI181
aI180
aI179
aI182
aI183
aI184
aI185
aI187
aI186
aI189
aI188
aI190
aI191
aI192
aI194
aI195
aI196
aI197
aI198
aI199
aI200
aI201
aI202
aI203
aI204
aI205
aI206
aI207
aI208
aI209
aI210
aI211
aI212
aI213
aI214
aI215
aI216
aI217
aI218
aI219
aI220
aI221
aI222
aI223
aI224
aI225
aI226
aI227
aI228
aI229
aI230
aI251
aI250
aI247
aI244
aI241
aI240
aI239
aI238
aI231
aI232
aI233
aI234
aI235
aI236
aI237
aI246
aI245
aI243
aI242
aI2
aI0
aI3
aI279
aI278
aI4
aI277
aI276
aI6
aI5
aI1
aI248
aI249
aI256
aI255
aI252
aI253
aI254
aI257
aI258
aI259
aI260
aI261
aI262
aI263
aI264
aI265
aI266
aI267
aI268
aI269
aI193
aI112
aI88
aI85
aI86
aI116
aI115
aI117
aI59
aI44
aI45
aI46
aI47
aI48
aI49
aI50
aI51
aI52
aI53
aI54
aI55
aI56
aI57
aI58
aI68
aI69
aI77
aI78
a.