(lp0
I9816
aI940
aI13
aI4690
aI12726
aI8926
aI8224
aI990
aI3654
aI8019
aI7037
aI10933
aI12072
aI7711
aI14586
aI7029
aI13813
aI14145
aI6560
aI103
aI214
aI2374
aI6926
aI14250
aI14290
aI10357
aI761
aI10846
aI5679
aI9607
aI6665
aI5928
aI14126
aI98
aI14949
aI5201
aI123
aI11798
aI2852
aI7760
aI12015
aI13552
aI10370
aI32
aI1476
aI1255
aI10775
aI4259
aI3048
aI11498
aI12949
aI4132
aI7218
aI3974
aI672
aI345
aI9042
aI8487
aI7346
aI5837
aI2720
aI8842
aI14466
aI4854
aI578
aI2363
aI11770
aI3299
aI5348
aI1511
aI3865
aI9038
aI1305
aI2436
aI10093
aI1163
aI3242
aI9188
aI2434
aI6997
aI4420
aI11043
aI8542
aI970
aI9010
aI264
aI13843
aI10356
aI6649
aI7302
aI13964
aI10991
aI10285
aI3189
aI12566
aI673
aI6016
aI4392
aI7675
aI11191
aI14346
aI5494
aI1045
aI1337
aI11679
aI168
aI2950
aI4515
aI9902
aI9668
aI3218
aI6042
aI25
aI2027
aI11890
aI12606
aI6107
aI12293
aI6108
aI13705
aI956
aI6109
aI2506
aI765
aI269
aI6628
aI2435
aI3275
aI6639
aI3470
aI10354
aI1539
aI9439
aI5337
aI1070
aI13022
aI2084
aI8458
aI8459
aI989
aI7323
aI5246
aI13483
aI14347
aI13373
aI5912
aI7499
aI2922
aI9798
aI6656
aI544
aI14608
aI10018
aI9783
aI13525
aI1879
aI11222
aI1722
aI2373
aI7198
aI2863
aI13933
aI138
aI1706
aI10252
aI9777
aI6408
aI12776
aI2550
aI386
aI8604
aI10687
aI13398
aI8270
aI8630
aI11707
aI8570
aI13888
aI99
aI764
aI13559
aI13146
aI8893
aI2061
aI6286
aI11178
aI2000
aI5045
aI2809
aI14600
aI4197
aI5921
aI111
aI4925
aI9933
aI10967
aI4894
aI7636
aI1870
aI6989
aI6075
aI13881
aI3098
aI9121
aI14458
aI14191
aI10256
aI5922
aI9062
aI3064
aI9104
aI13468
aI1340
aI2700
aI941
aI1107
aI1724
aI5925
aI14094
aI9019
aI751
aI1474
aI9057
aI12318
aI9891
aI10686
aI468
aI9459
aI12489
aI701
aI8383
aI4917
aI5216
aI14664
aI8665
aI3505
aI8127
aI5699
aI1355
aI12152
aI13025
aI2076
aI166
aI2949
aI9559
aI3088
aI8888
aI5923
aI13169
aI8429
aI7224
aI1184
aI7475
aI3829
aI5455
aI1534
aI40
aI5962
aI7304
aI4081
aI2470
aI12583
aI503
aI9293
aI4067
aI10823
aI13239
aI109
aI10229
aI5880
aI6138
aI7222
aI3831
aI11739
aI97
aI9686
aI2329
aI3372
aI41
aI12357
aI307
aI3229
aI12061
aI12970
aI9869
aI10254
aI2919
aI9800
aI5202
aI8199
aI39
aI6271
aI7375
aI11971
aI4429
aI7057
aI2879
aI6151
aI14717
aI14396
aI12199
aI5508
aI347
aI10107
aI14434
aI14127
aI10425
aI9701
aI6045
aI2940
aI12516
aI13453
aI12206
aI8925
aI11051
aI9805
aI2842
aI12227
aI1099
aI13401
aI3455
aI10381
aI1013
aI12629
aI3919
aI7076
aI10325
aI4403
aI9288
aI10566
aI4850
aI734
aI12859
aI11626
aI6078
aI2941
aI4032
aI14748
aI8885
aI3371
aI6939
aI671
aI3853
aI4480
aI10858
aI13761
aI4206
aI676
aI13067
aI11335
aI7125
aI7672
aI13777
aI600
aI1190
aI977
aI10206
aI6086
aI375
aI4963
aI12405
aI4807
aI11776
aI6909
aI6204
aI13907
aI7188
aI8643
aI3888
aI3434
aI3339
aI9643
aI13491
aI615
aI11604
aI873
aI14512
aI11339
aI1425
aI5826
aI10189
aI12006
aI267
aI12059
aI12064
aI6145
aI2009
aI1089
aI7576
aI10485
aI5042
aI11360
aI11037
aI5945
aI3034
aI10282
aI9069
aI11385
aI12201
aI7668
aI4262
aI13534
aI7071
aI14510
aI4893
aI9690
aI13543
aI5046
aI7500
aI2518
aI317
aI14486
aI1889
aI13934
aI12967
aI2825
aI6551
aI1153
aI10096
aI14310
aI10968
aI2001
aI12490
aI9936
aI1521
aI3524
aI9813
aI9733
aI742
aI9811
aI12783
aI14121
aI9775
aI7839
aI5336
aI9976
aI5458
aI13957
aI346
aI1423
aI4842
aI11797
aI13841
aI13720
aI14735
aI1018
aI738
aI732
aI14139
aI10767
aI1012
aI5963
aI9823
aI8246
aI1079
aI5001
aI6129
aI12775
aI8390
aI2269
aI13456
aI11502
aI3706
aI5313
aI2362
aI6113
aI14514
aI4909
aI3540
aI13536
aI2839
aI3787
aI14780
aI511
aI2854
aI313
aI2994
aI6003
aI11045
aI6941
aI10047
aI5843
aI8464
aI11665
aI12377
aI7092
aI6158
aI12376
aI1246
aI13642
aI5555
aI9189
aI3866
aI13352
aI5839
aI3188
aI7756
aI12483
aI2831
aI4337
aI9030
aI8723
aI9935
aI1409
aI5260
aI4554
aI1298
aI749
aI3975
aI2686
aI2715
aI11901
aI10739
aI14116
aI2367
aI14069
aI4362
aI2396
aI135
aI12506
aI747
aI11070
aI2801
aI8157
aI6948
aI1487
aI1872
aI10845
aI2920
aI10949
aI714
aI6170
aI1166
aI3707
aI7003
aI8847
aI13400
aI14864
aI12261
aI5232
aI4926
aI2827
aI13368
aI2375
aI2339
aI9385
aI15021
aI11350
aI2516
aI13682
aI3204
aI1484
aI2820
aI3292
aI5129
aI6945
aI8696
aI13507
aI13703
aI3825
aI4903
aI11559
aI11564
aI12664
aI6684
aI9776
aI1888
aI1725
aI5643
aI13227
aI7683
aI11812
aI11548
aI4984
aI5695
aI2239
aI6073
aI13240
aI4975
aI13393
aI3775
aI14235
aI11910
aI11952
aI113
aI1453
aI9179
aI1955
aI3058
aI10666
aI13065
aI11506
aI8189
aI6415
aI14666
aI11406
aI1253
aI7932
aI14110
aI3013
aI11638
aI3526
aI2915
aI559
aI11796
aI502
aI8861
aI9138
aI1977
aI5364
aI3290
aI5156
aI617
aI2967
aI10257
aI11641
aI2873
aI12432
aI14672
aI480
aI8507
aI3657
aI4916
aI5959
aI14415
aI13584
aI13241
aI1086
aI3457
aI4422
aI13431
aI12899
aI13093
aI1370
aI14879
aI1533
aI3721
aI3033
aI7922
aI1626
aI6014
aI2670
aI1780
aI13681
aI584
aI13394
aI13002
aI3972
aI6125
aI3184
aI1
aI13732
aI3004
aI9995
aI12789
aI1422
aI12416
aI10094
aI13422
aI159
aI10838
aI3849
aI9885
aI8769
aI10649
aI12752
aI11053
aI12407
aI8845
aI5621
aI4377
aI3851
aI1962
aI6280
aI8000
aI2433
aI6830
aI2933
aI14883
aI7507
aI7250
aI14125
aI13876
aI2643
aI119
aI649
aI8924
aI7526
aI4278
aI5503
aI11025
aI5170
aI14072
aI12179
aI11009
aI4488
aI6159
aI12709
aI8350
aI12009
aI5231
aI14948
aI14475
aI14448
aI694
aI757
aI12968
aI8895
aI12637
aI1519
aI8479
aI1693
aI6099
aI13722
aI11582
aI14885
aI14159
aI11010
aI11445
aI6426
aI8153
aI6616
aI3343
aI11097
aI5442
aI6554
aI8194
aI11048
aI3168
aI722
aI2995
aI1488
aI4371
aI13474
aI8226
aI13713
aI10987
aI13094
aI3148
aI12327
aI13862
aI4201
aI5578
aI2405
aI12403
aI4936
aI14565
aI3130
aI1207
aI8835
aI5185
aI5761
aI12678
aI1181
aI14947
aI9582
aI9698
aI3525
aI5219
aI9851
aI14734
aI4935
aI5972
aI7548
aI13095
aI12022
aI100
aI3566
aI9747
aI13704
aI11277
aI2343
aI15022
aI14216
aI3772
aI5229
aI9751
aI9625
aI8558
aI132
aI12853
aI14607
aI1313
aI2056
aI6330
aI10697
aI5648
aI12631
aI3376
aI5956
aI3158
aI12957
aI2696
aI1155
aI8002
aI4164
aI2701
aI12010
aI13829
aI10263
aI14708
aI4541
aI270
aI2918
aI5034
aI8951
aI8730
aI6285
aI11242
aI2869
aI14495
aI9118
aI669
aI2100
aI288
aI12401
aI14111
aI10013
aI4418
aI106
aI3839
aI9622
aI5498
aI336
aI3840
aI1527
aI9325
aI11341
aI13382
aI2431
aI14112
aI11904
aI5911
aI220
aI5600
aI2956
aI1428
aI12404
aI8151
aI10948
aI11448
aI14157
aI8702
aI14444
aI14863
aI14554
aI3771
aI13208
aI9205
aI626
aI13523
aI3178
aI1261
aI6537
aI6441
aI13836
aI3348
aI6450
aI11013
aI2829
aI1231
aI9915
aI8906
aI1297
aI7290
aI10718
aI12739
aI3063
aI481
aI11671
aI8609
aI14564
aI5462
aI783
aI9699
aI2495
aI13744
aI9434
aI6430
aI12136
aI9761
aI2630
aI1454
aI1265
aI12387
aI8880
aI13858
aI13874
aI13708
aI2533
aI12093
aI2327
aI9793
aI13753
aI3261
aI9446
aI1987
aI11430
aI9602
aI5666
aI11907
aI3518
aI8026
aI3209
aI5617
aI12147
aI7155
aI1603
aI13928
aI6814
aI4796
aI11034
aI2520
aI8351
aI289
aI15097
aI853
aI14601
aI6774
aI4694
aI6344
aI11283
aI7353
aI1819
aI7477
aI4033
aI6898
aI13908
aI11852
aI1209
aI14451
aI7069
aI10871
aI11060
aI9616
aI5714
aI5716
aI10226
aI13132
aI5513
aI11464
aI5552
aI8624
aI9644
aI7380
aI10693
aI12750
aI10849
aI9812
aI9279
aI3572
aI9454
aI1599
aI6283
aI3394
aI11330
aI11452
aI7106
aI3601
aI9972
aI12966
aI3367
aI5665
aI6496
aI11640
aI11873
aI5319
aI3953
aI4923
aI6137
aI12145
aI3427
aI6136
aI14592
aI7958
aI14001
aI12287
aI3190
aI3515
aI5685
aI13868
aI3105
aI3618
aI14095
aI9035
aI3608
aI7351
aI9314
aI2366
aI3592
aI13767
aI582
aI5523
aI2242
aI1382
aI6787
aI852
aI9248
aI13214
aI298
aI14031
aI3035
aI8497
aI4847
aI10609
aI7555
aI1210
aI11412
aI6134
aI10075
aI1867
aI8685
aI13766
aI8755
aI5771
aI9934
aI2551
aI7531
aI9819
aI1304
aI14154
aI7354
aI8355
aI8935
aI7812
aI11727
aI9218
aI11190
aI2787
aI12532
aI300
aI5689
aI9256
aI10878
aI11558
aI7166
aI657
aI8191
aI10751
aI8839
aI9914
aI355
aI2480
aI14476
aI13893
aI9937
aI10328
aI1839
aI6574
aI12167
aI3206
aI5291
aI3848
aI768
aI14457
aI8344
aI8375
aI3298
aI15096
aI9036
aI13814
aI9004
aI5389
aI3203
aI10835
aI62
aI12104
aI11931
aI7888
aI12518
aI9005
aI9007
aI11912
aI14517
aI5326
aI5269
aI5664
aI11315
aI2840
aI13837
aI15108
aI9275
aI1241
aI9856
aI9012
aI5255
aI4919
aI9924
aI679
aI13497
aI594
aI9882
aI9008
aI3258
aI2864
aI14142
aI3090
aI9821
aI7606
aI13502
aI3539
aI5311
aI9573
aI7528
aI9011
aI6661
aI3996
aI13885
aI1137
aI7916
aI3265
aI1461
aI3699
aI11483
aI12312
aI9778
aI13596
aI2841
aI5407
aI12170
aI8254
aI8669
aI465
aI13007
aI1232
aI6146
aI10343
aI5545
aI8915
aI6120
aI7940
aI14840
aI12535
aI12962
aI9980
aI555
aI462
aI6630
aI55
aI3227
aI2034
aI170
aI14158
aI491
aI290
aI11371
aI14233
aI6360
aI8927
aI9782
aI3491
aI3850
aI11279
aI8563
aI8564
aI12067
aI13518
aI1658
aI14779
aI6121
aI6629
aI11299
aI13910
aI11593
aI2190
aI7134
aI11883
aI14709
aI2664
aI11735
aI2464
aI14384
aI6155
aI3929
aI9298
aI11319
aI12747
aI9947
aI3857
aI2002
aI8271
aI6110
aI680
aI6163
aI2511
aI9309
aI2504
aI4944
aI8878
aI855
aI7422
aI12951
aI8262
aI11677
aI9791
aI2120
aI11390
aI18
aI14470
aI10508
aI9799
aI8560
aI2539
aI4057
aI3622
aI8068
aI13729
aI9575
aI12463
aI2430
aI125
aI8168
aI1884
aI1197
aI13152
aI2972
aI12467
aI14606
aI10696
aI4027
aI11342
aI3331
aI7246
aI13520
aI9765
aI1056
aI5230
aI431
aI13186
aI10977
aI13187
aI3248
aI8227
aI13619
aI14946
aI5694
aI13840
aI5556
aI4496
aI13446
aI10927
aI5926
aI5388
aI9116
aI279
aI4781
aI4846
aI7509
aI13041
aI14269
aI6929
aI7236
aI5126
aI5726
aI13894
aI1886
aI12185
aI11667
aI3132
aI3400
aI7807
aI8811
aI6685
aI11876
aI342
aI14114
aI8598
aI1960
aI4742
aI6783
aI11389
aI7511
aI6849
aI14713
aI3259
aI9742
aI3112
aI6817
aI4804
aI12961
aI9423
aI4775
aI11614
aI545
aI12797
aI6801
aI6452
aI6349
aI4752
aI5024
aI12272
aI8166
aI11152
aI11172
aI3213
aI8887
aI2466
aI4673
aI10890
aI4660
aI3522
aI8659
aI9640
aI11357
aI8853
aI2324
aI14169
aI4514
aI11047
aI12798
aI1204
aI4049
aI4668
aI5083
aI2974
aI4128
aI4928
aI8023
aI2487
aI9979
aI9509
aI2455
aI12286
aI5008
aI8750
aI15060
aI12439
aI9358
aI6764
aI9639
aI3324
aI12576
aI12060
aI1868
aI3182
aI6326
aI10150
aI13636
aI14759
aI11554
aI12557
aI15063
aI14210
aI1198
aI10249
aI693
aI10348
aI13749
aI4970
aI3652
aI9098
aI12347
aI14797
aI12673
aI8716
aI9401
aI14603
aI8891
aI9702
aI6378
aI186
aI9744
aI870
aI2481
aI12601
aI10707
aI13857
aI3501
aI11724
aI12420
aI9739
aI9420
aI5057
aI3450
aI229
aI5687
aI3798
aI631
aI9588
aI13273
aI6011
aI11394
aI14143
aI9400
aI9703
aI2783
aI9874
aI12635
aI9817
aI1537
aI11809
aI13833
aI2031
aI12545
aI1668
aI8202
aI11556
aI12470
aI13909
aI4938
aI11352
aI5133
aI616
aI1756
aI7434
aI7501
aI2706
aI11405
aI13867
aI13830
aI13984
aI12154
aI2889
aI11942
aI12882
aI2346
aI12247
aI2629
aI12503
aI2271
aI407
aI12507
aI8879
aI3928
aI158
aI14598
aI14604
aI6161
aI10811
aI1398
aI490
aI7449
aI12225
aI14166
aI12122
aI5415
aI6931
aI6531
aI5359
aI1669
aI12400
aI5688
aI8370
aI8313
aI14120
aI8760
aI9631
aI12425
aI8378
aI6693
aI719
aI7538
aI2422
aI10754
aI8428
aI2097
aI11855
aI10874
aI9870
aI1718
aI6246
aI7928
aI6427
aI4855
aI5237
aI14479
aI1871
aI5497
aI5935
aI7476
aI8511
aI5952
aI12359
aI10089
aI12360
aI9773
aI2462
aI8633
aI705
aI11840
aI883
aI5339
aI6688
aI9704
aI5431
aI1863
aI11885
aI1986
aI1513
aI10997
aI14165
aI4286
aI7527
aI7201
aI9469
aI1928
aI13797
aI5661
aI5960
aI5684
aI6784
aI6168
aI7936
aI10769
aI5003
aI297
aI14832
aI949
aI11166
aI6425
aI6882
aI13237
aI8541
aI9355
aI9635
aI10787
aI13544
aI5358
aI14836
aI10832
aI1201
aI3786
aI8962
aI9942
aI12395
aI7238
aI6522
aI7237
aI9181
aI8561
aI275
aI5191
aI954
aI1873
aI8331
aI10870
aI5184
aI1331
aI5548
aI8784
aI4487
aI12299
aI1767
aI8520
aI9029
aI11544
aI1983
aI139
aI10561
aI1765
aI10877
aI1995
aI3191
aI7157
aI6612
aI7934
aI3224
aI13442
aI6610
aI864
aI2474
aI3569
aI14537
aI4481
aI10344
aI4136
aI9432
aI9758
aI7524
aI13917
aI2498
aI8818
aI9790
aI9445
aI5942
aI565
aI8125
aI14577
aI6132
aI12883
aI12881
aI4123
aI13418
aI11611
aI3095
aI12706
aI12735
aI2386
aI3499
aI14773
aI13789
aI4122
aI11853
aI144
aI1923
aI14117
aI13560
aI6842
aI1162
aI1738
aI9017
aI2908
aI2648
aI4090
aI3407
aI2157
aI6881
aI13601
aI3271
aI1865
aI3081
aI939
aI7793
aI8641
aI314
aI3591
aI12499
aI8714
aI7784
aI8093
aI8137
aI2666
aI7342
aI15018
aI7040
aI967
aI11307
aI13457
aI6480
aI12530
aI1866
aI8172
aI7512
aI11050
aI12684
aI6697
aI14408
aI10219
aI550
aI1728
aI3217
aI11005
aI2458
aI8222
aI9666
aI9707
aI9402
aI13313
aI7984
aI11601
aI6499
aI11551
aI11552
aI7792
aI9537
aI14391
aI6573
aI6409
aI8130
aI10476
aI2258
aI2240
aI1652
aI13853
aI6907
aI13557
aI6387
aI11566
aI976
aI14167
aI9474
aI13598
aI13554
aI12394
aI5613
aI9196
aI3049
aI6339
aI439
aI6540
aI2342
aI587
aI3395
aI9516
aI8577
aI3790
aI7340
aI11014
aI1763
aI12517
aI10035
aI3497
aI1542
aI9545
aI9339
aI7091
aI5064
aI3147
aI12075
aI9462
aI1192
aI13176
aI4343
aI8490
aI1159
aI8790
aI1794
aI7921
aI150
aI9680
aI7596
aI9386
aI6903
aI2465
aI14590
aI14763
aI845
aI8858
aI6580
aI14197
aI9332
aI8450
aI10940
aI5125
aI362
aI8416
aI11408
aI13134
aI6179
aI2087
aI8989
aI181
aI5720
aI5603
aI6403
aI14630
aI12314
aI4764
aI12646
aI2358
aI1697
aI14659
aI6061
aI10704
aI2414
aI8757
aI5320
aI11434
aI4743
aI4139
aI9551
aI5310
aI5884
aI7716
aI9921
aI9641
aI3347
aI5004
aI3059
aI4982
aI6338
aI6920
aI4867
aI14231
aI11510
aI4138
aI1127
aI14532
aI14340
aI14585
aI3999
aI12184
aI13870
aI10944
aI5373
aI10464
aI12603
aI5460
aI5043
aI5717
aI4793
aI628
aI5005
aI5128
aI13488
aI9589
aI1455
aI6618
aI7563
aI9528
aI5751
aI9527
aI12793
aI3445
aI9785
aI9440
aI9323
aI14931
aI13817
aI9526
aI14528
aI1754
aI12674
aI11514
aI3155
aI8341
aI2416
aI3729
aI7406
aI9271
aI8707
aI8992
aI11281
aI3074
aI6508
aI2460
aI8749
aI3057
aI3927
aI3473
aI12214
aI8711
aI5333
aI6140
aI8562
aI256
aI6576
aI5380
aI5404
aI13936
aI4106
aI12042
aI9041
aI1128
aI9834
aI4100
aI1585
aI8812
aI8321
aI8900
aI5204
aI8482
aI14412
aI5702
aI14211
aI14578
aI13802
aI1112
aI9671
aI11354
aI14733
aI5112
aI2497
aI10747
aI9403
aI13551
aI5142
aI2808
aI10557
aI12668
aI11143
aI174
aI3568
aI12903
aI10746
aI9468
aI12249
aI2641
aI9723
aI1957
aI9457
aI9815
aI7213
aI6022
aI7295
aI1528
aI2953
aI2336
aI9373
aI5227
aI13834
aI11353
aI1727
aI9306
aI3366
aI10239
aI2020
aI11332
aI2979
aI3532
aI10872
aI9740
aI9988
aI14998
aI8404
aI3277
aI7063
aI3596
aI5190
aI14283
aI14392
aI1276
aI14701
aI9715
aI9406
aI1260
aI9894
aI5573
aI2070
aI551
aI9679
aI5601
aI1729
aI10471
aI5084
aI3814
aI3351
aI11305
aI12215
aI1814
aI5381
aI12675
aI6080
aI6182
aI2978
aI8198
aI12441
aI4111
aI7175
aI5579
aI469
aI7806
aI12866
aI7278
aI8175
aI8011
aI478
aI9525
aI4969
aI3943
aI178
aI9529
aI3199
aI7896
aI7828
aI2743
aI14693
aI3669
aI428
aI7260
aI14091
aI3385
aI9444
aI5370
aI10607
aI12285
aI4225
aI11379
aI5511
aI3672
aI8300
aI8235
aI8238
aI7187
aI12315
aI3080
aI9694
aI9577
aI13655
aI8732
aI12364
aI2849
aI14628
aI12636
aI773
aI8797
aI1411
aI9361
aI8543
aI5512
aI1234
aI8745
aI13913
aI1113
aI14932
aI12707
aI14306
aI2744
aI9678
aI6059
aI9384
aI5069
aI4260
aI9051
aI3211
aI5654
aI5902
aI5964
aI6186
aI12602
aI2337
aI13530
aI9383
aI9674
aI14225
aI15024
aI5721
aI6006
aI3832
aI5958
aI2129
aI2619
aI14133
aI12408
aI7972
aI10404
aI8574
aI6471
aI5628
aI5022
aI3994
aI14614
aI9650
aI6516
aI9368
aI2957
aI8232
aI6065
aI1011
aI3970
aI2425
aI2698
aI9845
aI12135
aI880
aI12959
aI8616
aI2486
aI8967
aI9752
aI12212
aI472
aI6974
aI1205
aI11928
aI14015
aI12743
aI1733
aI4937
aI7534
aI11676
aI3957
aI2191
aI11659
aI744
aI1275
aI239
aI5363
aI4875
aI513
aI2525
aI5920
aI3530
aI9426
aI9748
aI7962
aI5009
aI2029
aI11725
aI8814
aI4
aI10785
aI3044
aI2634
aI1039
aI154
aI2867
aI6847
aI6494
aI1093
aI10972
aI9681
aI8626
aI3235
aI5489
aI11306
aI9464
aI9826
aI1145
aI5919
aI1874
aI8970
aI9893
aI3169
aI11440
aI1492
aI9467
aI10971
aI7877
aI14230
aI12886
aI14087
aI2514
aI7557
aI9833
aI10916
aI10852
aI489
aI10165
aI1578
aI14150
aI2632
aI9842
aI9375
aI2296
aI1268
aI691
aI13585
aI6431
aI6064
aI2636
aI7631
aI9555
aI10262
aI8850
aI5220
aI7860
aI1667
aI4231
aI5888
aI7497
aI5969
aI6877
aI9411
aI1921
aI10770
aI1001
aI8712
aI11889
aI408
aI13796
aI1030
aI10349
aI319
aI8934
aI11066
aI5903
aI13204
aI11573
aI8465
aI3998
aI3944
aI11799
aI11236
aI2461
aI14793
aI10764
aI952
aI9982
aI11173
aI8174
aI6627
aI2529
aI5263
aI7844
aI5222
aI9720
aI12155
aI12449
aI2527
aI9451
aI12448
aI7564
aI706
aI12112
aI10125
aI10241
aI11661
aI13884
aI13083
aI14945
aI12628
aI13269
aI4384
aI1098
aI8758
aI7976
aI7021
aI4352
aI2008
aI13625
aI8856
aI7794
aI8244
aI1654
aI6572
aI14615
aI8610
aI10300
aI9257
aI6993
aI6884
aI13177
aI3194
aI2439
aI11777
aI10385
aI8406
aI7975
aI11101
aI3467
aI13180
aI5468
aI7988
aI3437
aI10003
aI11119
aI8787
aI13873
aI7034
aI4951
aI12464
aI5691
aI3628
aI10194
aI10373
aI9968
aI5644
aI11938
aI1529
aI5910
aI5268
aI11734
aI6529
aI13883
aI8205
aI5435
aI11902
aI7357
aI10153
aI743
aI14969
aI13664
aI6173
aI9865
aI11893
aI14550
aI6420
aI14035
aI533
aI11467
aI3512
aI9975
aI13058
aI7471
aI9653
aI14022
aI7026
aI13088
aI14214
aI8510
aI6686
aI13282
aI3697
aI6479
aI12994
aI8537
aI8509
aI893
aI10825
aI13901
aI2531
aI11469
aI3196
aI1607
aI13783
aI13709
aI10563
aI12073
aI11471
aI8959
aI11833
aI7569
aI3205
aI6112
aI8478
aI10605
aI12965
aI11553
aI12538
aI3754
aI11729
aI10085
aI9280
aI1177
aI13869
aI11953
aI1832
aI9943
aI2568
aI2823
aI254
aI3783
aI7181
aI5519
aI7402
aI12268
aI126
aI7022
aI2970
aI11685
aI6013
aI13809
aI10608
aI5433
aI12693
aI1473
aI8963
aI4150
aI10830
aI8336
aI13153
aI11451
aI10684
aI244
aI899
aI3225
aI13470
aI10736
aI9363
aI11555
aI4151
aI6689
aI2368
aI9927
aI9063
aI5646
aI5981
aI3133
aI14207
aI9837
aI453
aI14761
aI9838
aI5360
aI7959
aI7553
aI8377
aI43
aI2212
aI4135
aI882
aI10907
aI9630
aI13100
aI10734
aI12216
aI10867
aI2631
aI1308
aI11127
aI6493
aI14835
aI11438
aI4024
aI11543
aI3915
aI9846
aI9360
aI881
aI8944
aI3222
aI14240
aI3562
aI1574
aI7980
aI1084
aI127
aI3599
aI3911
aI1196
aI888
aI3830
aI12016
aI13482
aI6927
aI3766
aI2275
aI13437
aI14141
aI2654
aI5610
aI3017
aI14611
aI2688
aI3690
aI2558
aI8759
aI5677
aI5108
aI3207
aI2545
aI3320
aI6577
aI13800
aI3670
aI6102
aI12774
aI9636
aI3561
aI4921
aI3910
aI324
aI3912
aI9932
aI8340
aI8789
aI6666
aI1285
aI11114
aI128
aI3914
aI3026
aI6609
aI3557
aI4924
aI1083
aI14371
aI887
aI188
aI8533
aI10045
aI8717
aI14804
aI1383
aI6798
aI3621
aI8022
aI8215
aI311
aI6122
aI2909
aI7329
aI5270
aI13669
aI14140
aI5655
aI12031
aI2712
aI4357
aI17
aI13828
aI4455
aI8802
aI3219
aI8568
aI1807
aI611
aI8094
aI1758
aI5697
aI4669
aI10087
aI1745
aI3598
aI10836
aI7841
aI3812
aI11080
aI8708
aI1259
aI5410
aI7510
aI5438
aI995
aI7559
aI12209
aI1191
aI10286
aI182
aI15109
aI7987
aI3021
aI1186
aI1961
aI7358
aI2317
aI1435
aI8373
aI5254
aI219
aI1426
aI3671
aI6777
aI4724
aI13637
aI2903
aI11018
aI5027
aI11561
aI14395
aI2058
aI1430
aI3541
aI11267
aI6897
aI13929
aI7365
aI6135
aI6103
aI4229
aI3289
aI7633
aI10705
aI1273
aI12337
aI3626
aI4181
aI10679
aI2413
aI3379
aI11098
aI370
aI8100
aI12540
aI5211
aI11741
aI2266
aI5641
aI8881
aI11442
aI7651
aI10316
aI11135
aI2146
aI13856
aI12681
aI5476
aI11657
aI14316
aI12012
aI3962
aI11819
aI5396
aI7621
aI13348
aI12756
aI6363
aI10070
aI10071
aI5730
aI5285
aI10920
aI3025
aI5823
aI12144
aI6060
aI13505
aI3514
aI1116
aI1023
aI4505
aI5007
aI12486
aI14402
aI9713
aI1721
aI5509
aI9850
aI9479
aI4021
aI13620
aI5443
aI8713
aI14084
aI5996
aI5375
aI443
aI11660
aI1823
aI6550
aI6694
aI5553
aI12366
aI8141
aI11210
aI9659
aI12482
aI9374
aI3065
aI9399
aI14551
aI7640
aI12180
aI5205
aI9697
aI4319
aI3077
aI11856
aI11084
aI9547
aI10840
aI11444
aI3581
aI1115
aI2893
aI10869
aI10268
aI11450
aI13137
aI6972
aI2401
aI1336
aI7300
aI5169
aI3338
aI4511
aI1699
aI5938
aI6687
aI1353
aI8203
aI4062
aI6769
aI11466
aI13421
aI4786
aI11049
aI5576
aI8301
aI13178
aI9824
aI8960
aI11568
aI5450
aI3675
aI5010
aI11387
aI11235
aI1049
aI5331
aI5953
aI2490
aI1263
aI2280
aI1831
aI10
aI1980
aI11100
aI1463
aI8178
aI2457
aI5616
aI13133
aI2444
aI11264
aI3336
aI6133
aI4101
aI8048
aI2062
aI3969
aI10716
aI5645
aI1165
aI11920
aI9274
aI13004
aI1052
aI4405
aI8491
aI5955
aI5296
aI1939
aI1694
aI1131
aI8991
aI13351
aI946
aI5560
aI11118
aI3285
aI12243
aI11508
aI2747
aI1057
aI1813
aI4144
aI9508
aI399
aI1250
aI936
aI5457
aI12521
aI10289
aI4344
aI6040
aI11182
aI11647
aI12936
aI2252
aI13344
aI6082
aI6083
aI14223
aI3031
aI4127
aI8369
aI3328
aI9814
aI9455
aI8524
aI6144
aI2587
aI14782
aI184
aI6470
aI9471
aI10550
aI6171
aI8469
aI8606
aI10677
aI2880
aI3274
aI3484
aI1514
aI1224
aI7183
aI5939
aI9624
aI3200
aI5063
aI12791
aI11642
aI5895
aI10182
aI14382
aI1148
aI9973
aI9839
aI8855
aI865
aI6039
aI3452
aI5671
aI1993
aI1783
aI9487
aI8532
aI13897
aI331
aI4009
aI11309
aI6976
aI6041
aI7343
aI3954
aI858
aI10483
aI2328
aI2267
aI6587
aI442
aI7747
aI12298
aI7614
aI8096
aI5148
aI12323
aI5531
aI11269
aI3307
aI10873
aI10906
aI2274
aI6172
aI9969
aI6309
aI3145
aI6035
aI9180
aI11710
aI1073
aI2059
aI9764
aI8343
aI9435
aI14036
aI7350
aI5132
aI7486
aI2243
aI3009
aI8337
aI7791
aI8489
aI10313
aI8207
aI7532
aI7098
aI13550
aI5309
aI10330
aI332
aI15098
aI7618
aI6447
aI12324
aI2345
aI58
aI13420
aI3997
aI6555
aI13860
aI11149
aI11678
aI5449
aI7062
aI1114
aI8965
aI8938
aI9684
aI9393
aI12412
aI9437
aI3519
aI13578
aI14098
aI312
aI2881
aI8486
aI9836
aI9470
aI1222
aI5082
aI14446
aI14686
aI1672
aI1279
aI1309
aI11111
aI8972
aI1193
aI7803
aI2952
aI11778
aI12234
aI12235
aI8177
aI8176
aI7307
aI3340
aI14543
aI9994
aI7308
aI12257
aI12700
aI11567
aI14961
aI13564
aI2402
aI8897
aI7028
aI1277
aI11507
aI14088
aI13896
aI9453
aI9810
aI9061
aI6681
aI5642
aI1144
aI5798
aI1076
aI10196
aI4056
aI11129
aI2644
aI5609
aI1091
aI6561
aI13926
aI9673
aI2588
aI2748
aI1531
aI1565
aI1412
aI12303
aI2301
aI13341
aI10435
aI837
aI14454
aI857
aI8859
aI7054
aI14552
aI5940
aI42
aI7617
aI10875
aI11139
aI8899
aI5756
aI2705
aI378
aI396
aI2981
aI9939
aI6021
aI14309
aI3792
aI14587
aI12045
aI5143
aI12363
aI6156
aI2796
aI5724
aI85
aI7817
aI6674
aI1010
aI6373
aI11003
aI8374
aI13771
aI13484
aI3276
aI10921
aI12414
aI7701
aI2335
aI7871
aI9863
aI6469
aI1816
aI11006
aI605
aI6965
aI1532
aI146
aI1575
aI9408
aI14327
aI1840
aI6029
aI3643
aI6562
aI9546
aI13650
aI15086
aI8365
aI6379
aI11780
aI5374
aI9073
aI1329
aI3286
aI3488
aI6320
aI12037
aI4256
aI1256
aI7884
aI839
aI9652
aI6375
aI2824
aI12176
aI1937
aI13904
aI3545
aI14144
aI6790
aI9974
aI9141
aI10988
aI12657
aI12586
aI6563
aI9992
aI11310
aI527
aI11672
aI5058
aI2251
aI14453
aI13450
aI9549
aI3985
aI1610
aI943
aI9031
aI7068
aI9056
aI11576
aI5734
aI2326
aI3937
aI13586
aI11914
aI1008
aI5979
aI5735
aI6497
aI13451
aI8796
aI6525
aI10604
aI14626
aI5514
aI540
aI13692
aI14224
aI26
aI405
aI7421
aI7468
aI5236
aI14078
aI13734
aI11035
aI953
aI3349
aI7056
aI13188
aI8462
aI9341
aI7191
aI7123
aI10324
aI11492
aI351
aI7721
aI5095
aI1803
aI11007
aI603
aI573
aI4255
aI13872
aI2003
aI14016
aI4172
aI14071
aI1742
aI3854
aI9853
aI9483
aI9382
aI9672
aI2354
aI6942
aI11633
aI636
aI4430
aI2412
aI10774
aI8360
aI226
aI6569
aI5264
aI12531
aI6549
aI5813
aI6385
aI12338
aI5500
aI2738
aI6690
aI8551
aI9617
aI10879
aI14206
aI1833
aI8213
aI1007
aI7019
aI11585
aI4920
aI6986
aI13441
aI5701
aI6423
aI7881
aI10969
aI394
aI2555
aI8883
aI1538
aI7818
aI9533
aI8943
aI373
aI8128
aI5667
aI14118
aI8753
aI10978
aI6678
aI8359
aI6520
aI4037
aI7010
aI11199
aI1617
aI6356
aI3861
aI14983
aI5073
aI3369
aI2798
aI13556
aI5218
aI8323
aI6361
aI4482
aI7369
aI6106
aI14627
aI6357
aI1249
aI1766
aI10433
aI13318
aI8822
aI8800
aI2007
aI14445
aI8894
aI4105
aI3877
aI6384
aI11378
aI9859
aI7978
aI6556
aI14219
aI10414
aI3023
aI8499
aI8986
aI10304
aI8703
aI1802
aI3590
aI2797
aI7496
aI3208
aI6374
aI1082
aI9677
aI486
aI8860
aI13469
aI8405
aI11634
aI1791
aI2894
aI10124
aI8206
aI1146
aI8389
aI2341
aI13429
aI1342
aI12054
aI2441
aI8426
aI3040
aI12118
aI9717
aI4447
aI4131
aI3549
aI8535
aI688
aI2785
aI10295
aI12509
aI7376
aI8931
aI4760
aI6440
aI11759
aI8608
aI6066
aI14665
aI310
aI10333
aI10002
aI6719
aI5265
aI2589
aI5306
aI2500
aI8990
aI3574
aI12133
aI14958
aI9987
aI10484
aI526
aI5994
aI7033
aI13340
aI10900
aI5478
aI2285
aI15087
aI9220
aI9554
aI4519
aI14155
aI10215
aI7991
aI13781
aI8371
aI27
aI3097
aI9548
aI4129
aI7646
aI8539
aI861
aI7173
aI3632
aI6079
aI13742
aI5640
aI9405
aI12787
aI14800
aI8500
aI19
aI10813
aI7693
aI13485
aI2310
aI987
aI14170
aI8296
aI4250
aI2750
aI12615
aI6230
aI12692
aI1760
aI4340
aI9212
aI14122
aI3283
aI8138
aI12129
aI7016
aI9642
aI12305
aI14631
aI153
aI8778
aI14956
aI978
aI5168
aI9210
aI9034
aI745
aI1992
aI9519
aI5312
aI10372
aI3487
aI7487
aI9520
aI5361
aI2534
aI11946
aI12262
aI5520
aI9990
aI14593
aI9413
aI9726
aI4109
aI11255
aI10549
aI4342
aI12275
aI1647
aI1891
aI9725
aI1343
aI8904
aI14609
aI4755
aI14612
aI13445
aI6568
aI4744
aI5266
aI4966
aI8332
aI12874
aI3373
aI6614
aI8069
aI10540
aI10320
aI14033
aI8754
aI12393
aI11203
aI12813
aI3310
aI7457
aI6028
aI5332
aI9346
aI7126
aI2802
aI8506
aI9481
aI6319
aI133
aI6139
aI14833
aI5538
aI185
aI720
aI13419
aI3956
aI3871
aI12271
aI13854
aI5356
aI14017
aI6008
aI3241
aI14064
aI12078
aI9410
aI1837
aI9074
aI4472
aI6548
aI13244
aI7103
aI14527
aI6333
aI8388
aI9303
aI2813
aI3246
aI8538
aI14821
aI5318
aI13621
aI5206
aI12560
aI4089
aI3192
aI12148
aI14861
aI10931
aI2060
aI9871
aI1046
aI7727
aI7613
aI7423
aI8751
aI2685
aI5597
aI4958
aI12450
aI14288
aI6009
aI14622
aI10644
aI5067
aI1673
aI11637
aI4995
aI5452
aI14379
aI14644
aI1393
aI5488
aI2121
aI13946
aI2334
aI9966
aI12278
aI9580
aI8061
aI12292
aI454
aI2754
aI12294
aI3383
aI13081
aI10011
aI4152
aI619
aI646
aI2553
aI5619
aI606
aI7786
aI4993
aI4017
aI5167
aI7997
aI14352
aI8536
aI6074
aI5738
aI5954
aI11643
aI914
aI8525
aI13192
aI3685
aI352
aI3800
aI1254
aI1019
aI2928
aI6578
aI9595
aI8470
aI7929
aI7491
aI7847
aI13758
aI10719
aI7989
aI1674
aI5605
aI3332
aI1403
aI12982
aI9112
aI9247
aI10127
aI10999
aI5276
aI7592
aI2625
aI6887
aI2419
aI13825
aI12983
aI3687
aI10941
aI14623
aI1464
aI14307
aI12429
aI12505
aI14287
aI7338
aI6044
aI4561
aI12644
aI6727
aI7331
aI5536
aI2650
aI14385
aI5105
aI7669
aI4063
aI7390
aI867
aI5178
aI8475
aI3934
aI7858
aI14480
aI4016
aI10037
aI3294
aI5944
aI11087
aI3144
aI14548
aI13436
aI4083
aI6194
aI14433
aI7312
aI4248
aI9160
aI7335
aI5052
aI9579
aI3172
aI6193
aI10592
aI12044
aI12913
aI11524
aI9944
aI11512
aI11008
aI9167
aI14383
aI12718
aI5990
aI11997
aI8528
aI9862
aI560
aI4553
aI5277
aI64
aI7589
aI2162
aI1235
aI11275
aI7332
aI233
aI9587
aI4498
aI3160
aI11489
aI7325
aI7670
aI13062
aI10008
aI963
aI1303
aI8439
aI1550
aI5053
aI14313
aI12526
aI3185
aI5590
aI6669
aI1953
aI11175
aI10504
aI590
aI1495
aI10023
aI13900
aI1636
aI11064
aI143
aI1117
aI3946
aI684
aI10582
aI3321
aI2543
aI7957
aI13609
aI741
aI3165
aI2109
aI2154
aI8740
aI3890
aI1482
aI3769
aI11589
aI10051
aI838
aI381
aI13548
aI3511
aI12161
aI5540
aI5899
aI1785
aI9592
aI3498
aI2427
aI10996
aI14372
aI14055
aI1985
aI1988
aI2655
aI6255
aI7580
aI8766
aI9223
aI4704
aI14477
aI3713
aI14978
aI1401
aI13603
aI6207
aI10720
aI14426
aI683
aI14359
aI2907
aI9956
aI13973
aI5200
aI2640
aI14507
aI14580
aI891
aI5138
aI10517
aI4586
aI2800
aI6675
aI12987
aI12948
aI1817
aI8307
aI12097
aI3166
aI11033
aI14394
aI12906
aI1735
aI7805
aI4453
aI14546
aI13030
aI14361
aI1950
aI13756
aI5988
aI10803
aI12500
aI5195
aI5378
aI65
aI14362
aI6679
aI1600
aI1790
aI5411
aI11302
aI1486
aI4952
aI3107
aI14990
aI5283
aI4607
aI6738
aI7665
aI13660
aI14728
aI5068
aI11599
aI10807
aI5883
aI388
aI8738
aI889
aI383
aI9603
aI1350
aI5974
aI9165
aI8631
aI4870
aI12737
aI4836
aI5885
aI60
aI2657
aI2371
aI3647
aI5341
aI2792
aI5087
aI5626
aI2063
aI9958
aI3334
aI7082
aI5261
aI3179
aI4720
aI10014
aI5409
aI7362
aI414
aI5889
aI145
aI2858
aI9904
aI1737
aI11532
aI2372
aI12282
aI12197
aI350
aI3439
aI1748
aI72
aI5145
aI798
aI7303
aI12575
aI5176
aI5171
aI9139
aI12228
aI4615
aI6742
aI5302
aI13263
aI10522
aI390
aI10309
aI10919
aI3083
aI1462
aI5187
aI10603
aI3082
aI1237
aI5399
aI5275
aI807
aI1984
aI1173
aI6922
aI1507
aI6743
aI4617
aI8126
aI5304
aI7387
aI322
aI5434
aI6696
aI14595
aI9909
aI6491
aI6033
aI12372
aI12911
aI9905
aI6198
aI8952
aI13822
aI6511
aI794
aI9506
aI12934
aI4387
aI9059
aI3100
aI13321
aI5098
aI13236
aI8084
aI5870
aI12356
aI4733
aI87
aI2377
aI799
aI6266
aI339
aI13012
aI9566
aI13011
aI1592
aI7271
aI3085
aI12230
aI3104
aI10615
aI261
aI6589
aI5986
aI14351
aI1641
aI10030
aI1503
aI8701
aI5632
aI14816
aI3573
aI14044
aI5675
aI572
aI3816
aI14435
aI5123
aI5181
aI413
aI1806
aI14525
aI11575
aI3527
aI10629
aI9910
aI11270
aI12806
aI1590
aI10586
aI6534
aI14848
aI525
aI14648
aI8762
aI1703
aI14354
aI8763
aI7172
aI7013
aI9890
aI1709
aI7330
aI8892
aI6196
aI5323
aI945
aI944
aI7203
aI8765
aI6837
aI6048
aI6331
aI6358
aI2721
aI5775
aI10056
aI11805
aI14594
aI7945
aI8836
aI5819
aI7898
aI5430
aI10470
aI8392
aI4460
aI5854
aI6226
aI13969
aI10818
aI2142
aI9954
aI11687
aI10394
aI4973
aI9495
aI61
aI8397
aI9629
aI13587
aI13774
aI4503
aI5894
aI1133
aI1506
aI1508
aI12374
aI5
aI13995
aI12198
aI4305
aI8085
aI12997
aI9955
aI10516
aI14818
aI10033
aI9929
aI1990
aI14258
aI121
aI410
aI12034
aI14222
aI3918
aI9571
aI9868
aI11581
aI793
aI9521
aI14775
aI8437
aI3202
aI9564
aI14691
aI14325
aI3740
aI14008
aI1965
aI1964
aI14341
aI9911
aI10894
aI12920
aI14324
aI9556
aI5611
aI14326
aI12038
aI9163
aI12885
aI5403
aI10826
aI12754
aI14048
aI14328
aI10053
aI12927
aI9563
aI4976
aI14436
aI3444
aI6836
aI5429
aI7827
aI802
aI14339
aI13084
aI5746
aI2627
aI10111
aI13895
aI2384
aI1034
aI12931
aI9565
aI6004
aI12065
aI10692
aI12229
aI3750
aI7004
aI11546
aI7591
aI8110
aI7115
aI4557
aI6456
aI13245
aI7060
aI9961
aI9562
aI13438
aI14685
aI12402
aI12930
aI6070
aI8590
aI10708
aI9962
aI14588
aI10015
aI14640
aI14337
aI10017
aI94
aI6131
aI9963
aI5987
aI411
aI92
aI5208
aI5209
aI12884
aI173
aI1494
aI2752
aI13746
aI12437
aI1732
aI1682
aI10993
aI1545
aI7429
aI9866
aI4536
aI7420
aI14886
aI14817
aI9922
aI8572
aI152
aI9350
aI1554
aI14639
aI12922
aI9965
aI2821
aI13574
aI9557
aI8998
aI14642
aI5943
aI10195
aI9586
aI3073
aI14687
aI11891
aI12166
aI13689
aI923
aI12456
aI5179
aI9590
aI7007
aI7939
aI6304
aI4313
aI4314
aI5710
aI8083
aI800
aI3173
aI12650
aI7577
aI12594
aI5740
aI12550
aI29
aI7328
aI14373
aI6453
aI7729
aI13222
aI6862
aI1598
aI5891
aI13547
aI1623
aI11106
aI9351
aI2249
aI3860
aI3146
aI3734
aI11141
aI6713
aI9228
aI529
aI6052
aI12929
aI3089
aI1638
aI14058
aI5896
aI8381
aI1490
aI6239
aI10022
aI13916
aI8554
aI11629
aI9569
aI7849
aI4719
aI5103
aI5141
aI3544
aI13035
aI8132
aI6030
aI3665
aI6241
aI11542
aI9923
aI4794
aI522
aI8917
aI4203
aI14057
aI6068
aI7383
aI14350
aI11096
aI4859
aI2658
aI12699
aI9510
aI12696
aI3312
aI12620
aI12823
aI10622
aI3992
aI9352
aI10432
aI7170
aI5192
aI8135
aI10616
aI6428
aI1795
aI6435
aI2626
aI2295
aI13759
aI11063
aI7041
aI1796
aI4330
aI13252
aI11615
aI11790
aI8075
aI12035
aI6031
aI2314
aI6215
aI7999
aI12274
aI2067
aI3398
aI1555
aI4874
aI3536
aI6049
aI10021
aI6034
aI456
aI69
aI1307
aI5904
aI9084
aI193
aI3570
aI7947
aI13109
aI7174
aI6726
aI190
aI8394
aI6951
aI2140
aI3746
aI3741
aI12492
aI796
aI3110
aI5076
aI5739
aI9611
aI12040
aI14358
aI10034
aI12036
aI11616
aI10937
aI1935
aI11026
aI1553
aI10632
aI10016
aI1608
aI12240
aI4967
aI5900
aI250
aI14560
aI2891
aI3862
aI801
aI7983
aI5905
aI13195
aI14584
aI417
aI4538
aI3055
aI2661
aI10623
aI9908
aI11668
aI13792
aI9561
aI11609
aI11399
aI77
aI12773
aI10596
aI12442
aI8735
aI1433
aI1670
aI12919
aI6600
aI1547
aI9604
aI12712
aI13472
aI12992
aI13402
aI7967
aI12893
aI11871
aI11388
aI11592
aI5244
aI13435
aI1450
aI12923
aI9612
aI9108
aI6084
aI12815
aI6714
aI5243
aI12373
aI13032
aI6265
aI2923
aI7470
aI13949
aI6235
aI6297
aI12925
aI12452
aI1526
aI95
aI13317
aI6312
aI1518
aI12381
aI3093
aI6748
aI4626
aI2628
aI1467
aI5887
aI14721
aI1031
aI3688
aI3231
aI13216
aI13217
aI2382
aI12921
aI11636
aI4205
aI11794
aI9912
aI9567
aI7948
aI5288
aI7799
aI5408
aI3106
aI2071
aI805
aI13324
aI5395
aI8294
aI2479
aI8295
aI7169
aI6359
aI9186
aI9185
aI11831
aI10682
aI13747
aI2537
aI2899
aI530
aI7220
aI7377
aI11560
aI1967
aI1860
aI750
aI4092
aI2088
aI9199
aI968
aI10073
aI9581
aI13962
aI6096
aI1948
aI14575
aI9875
aI12682
aI3553
aI898
aI7869
aI7232
aI3103
aI2728
aI7394
aI1736
aI11726
aI8001
aI5879
aI8111
aI5281
aI1175
aI6682
aI389
aI3681
aI5647
aI840
aI4209
aI13739
aI5071
aI8032
aI531
aI5893
aI1505
aI1637
aI4994
aI2765
aI11539
aI1631
aI10090
aI12579
aI9560
aI2073
aI14518
aI11533
aI12018
aI6289
aI14671
aI12651
aI2822
aI8768
aI1360
aI9296
aI12140
aI14349
aI9047
aI3382
aI4737
aI1126
aI4988
aI8081
aI5039
aI10012
aI8233
aI13546
aI7584
aI10781
aI12917
aI521
aI6097
aI3137
aI5635
aI7208
aI1562
aI9583
aI6327
aI762
aI7455
aI12536
aI13960
aI13959
aI9198
aI14281
aI3311
aI5897
aI9860
aI13570
aI2704
aI2703
aI9068
aI5000
aI9558
aI14625
aI1457
aI14887
aI7494
aI9412
aI9724
aI5131
aI13404
aI3159
aI8072
aI12525
aI10783
aI13748
aI8505
aI365
aI9170
aI2291
aI5873
aI12715
aI2493
aI14375
aI5413
aI10815
aI2459
aI2735
aI816
aI3389
aI2755
aI13406
aI2964
aI9164
aI12000
aI12068
aI12915
aI57
aI3175
aI460
aI12599
aI12345
aI8446
aI8134
aI12956
aI790
aI6633
aI727
aI13604
aI14073
aI3678
aI835
aI13788
aI10665
aI3315
aI2491
aI13983
aI13411
aI10628
aI10236
aI8607
aI10449
aI1930
aI79
aI585
aI5284
aI8103
aI11099
aI1899
aI9754
aI12237
aI5392
aI5541
aI9430
aI8387
aI9505
aI12584
aI7518
aI9584
aI10423
aI8059
aI7850
aI5571
aI890
aI635
aI12984
aI5866
aI5197
aI14860
aI4997
aI507
aI11481
aI14702
aI10814
aI7581
aI12826
aI7367
aI3333
aI7765
aI1248
aI9496
aI2727
aI11246
aI5249
aI3870
aI3391
aI5189
aI1931
aI5998
aI5999
aI5602
aI2637
aI13641
aI6670
aI7474
aI1346
aI8792
aI13149
aI23
aI10098
aI10074
aI6677
aI10024
aI10994
aI1676
aI5439
aI14807
aI10029
aI11108
aI7659
aI2383
aI3869
aI6005
aI1094
aI3113
aI12089
aI13576
aI14857
aI6918
aI8638
aI9743
aI9881
aI7202
aI3656
aI14633
aI1362
aI4204
aI3174
aI5535
aI3115
aI7113
aI1589
aI14389
aI931
aI729
aI5693
aI5324
aI7117
aI7118
aI2245
aI9136
aI4500
aI7114
aI12918
aI12469
aI7012
aI9153
aI7298
aI13443
aI8767
aI5362
aI5892
aI5550
aI14049
aI6307
aI2085
aI9094
aI11278
aI1910
aI6279
aI461
aI8316
aI1621
aI5114
aI13257
aI3887
aI4232
aI3390
aI11517
aI14344
aI6652
aI12924
aI3134
aI8435
aI2446
aI14245
aI791
aI10905
aI13605
aI1219
aI6253
aI8971
aI832
aI3149
aI566
aI11194
aI5622
aI14332
aI9920
aI10658
aI11268
aI12953
aI12462
aI7337
aI1530
aI2663
aI2246
aI3401
aI3079
aI7397
aI5427
aI808
aI11878
aI1027
aI2151
aI13780
aI7251
aI8009
aI14878
aI8034
aI14786
aI8047
aI6231
aI6468
aI2308
aI5673
aI6334
aI13347
aI13653
aI13124
aI14798
aI5303
aI11414
aI2294
aI2610
aI9089
aI8187
aI4240
aI2244
aI8596
aI10535
aI4654
aI7112
aI4395
aI6464
aI8024
aI4599
aI9318
aI14690
aI8037
aI3397
aI10723
aI13433
aI8036
aI4315
aI782
aI12954
aI10331
aI10618
aI10312
aI4227
aI4213
aI7392
aI7586
aI2101
aI10961
aI11368
aI13638
aI6270
aI11740
aI8039
aI2676
aI8529
aI930
aI4595
aI1389
aI14994
aI8042
aI199
aI1449
aI2193
aI1845
aI2724
aI13611
aI8834
aI13107
aI13106
aI11417
aI13545
aI10371
aI4502
aI13991
aI10141
aI2299
aI8761
aI8184
aI10131
aI4507
aI8474
aI11158
aI4647
aI11927
aI7901
aI8057
aI9246
aI11056
aI13144
aI11761
aI8366
aI702
aI10745
aI15014
aI11851
aI3645
aI4113
aI5135
aI3020
aI7268
aI919
aI131
aI7478
aI7233
aI9500
aI4247
aI1069
aI12362
aI2791
aI6484
aI12339
aI14338
aI12043
aI10964
aI4563
aI12894
aI11744
aI12732
aI7320
aI6856
aI2830
aI10123
aI11115
aI9626
aI10403
aI13889
aI1594
aI704
aI1713
aI200
aI8683
aI1861
aI7598
aI4872
aI5882
aI12768
aI5984
aI11501
aI8929
aI6703
aI6892
aI11223
aI4635
aI7109
aI11181
aI2769
aI9215
aI13104
aI6436
aI14651
aI2746
aI8015
aI6019
aI1390
aI4998
aI10108
aI13234
aI12317
aI6973
aI6866
aI13628
aI781
aI11146
aI988
aI6725
aI13103
aI14409
aI9088
aI1502
aI4491
aI4497
aI3855
aI7430
aI1135
aI4293
aI4900
aI5971
aI14785
aI13275
aI9501
aI13003
aI12030
aI3818
aI8672
aI5240
aI3099
aI4556
aI11496
aI4386
aI12116
aI1862
aI14808
aI5099
aI14447
aI7015
aI4882
aI7195
aI6329
aI7190
aI11869
aI7516
aI1911
aI843
aI8080
aI13953
aI12048
aI8901
aI6745
aI4619
aI6416
aI11272
aI4435
aI1801
aI12340
aI3528
aI1926
aI14675
aI2277
aI12092
aI9601
aI7482
aI5868
aI5672
aI8055
aI2876
aI438
aI13101
aI8305
aI3936
aI5810
aI2332
aI7154
aI3295
aI1472
aI14264
aI10883
aI14727
aI516
aI14679
aI10761
aI4192
aI10054
aI819
aI12624
aI1614
aI1859
aI4715
aI4445
aI7219
aI2264
aI5081
aI5080
aI8838
aI848
aI6981
aI6982
aI5792
aI7816
aI12418
aI14263
aI8046
aI11536
aI11919
aI12702
aI7485
aI10386
aI10963
aI11407
aI639
aI13289
aI9338
aI876
aI12177
aI5711
aI8731
aI14649
aI3403
aI11618
aI661
aI12786
aI6750
aI4630
aI7120
aI1378
aI9027
aI13097
aI2297
aI13028
aI1576
aI10938
aI11427
aI11820
aI947
aI6396
aI12817
aI13961
aI11737
aI1302
aI11981
aI1509
aI6722
aI6624
aI1602
aI13985
aI9072
aI7931
aI806
aI4680
aI5941
aI10458
aI10409
aI7230
aI13806
aI14670
aI2622
aI455
aI2415
aI12796
aI9028
aI1597
aI1479
aI8182
aI4469
aI2305
aI10710
aI8809
aI7573
aI10730
aI10359
aI7597
aI11684
aI10482
aI10722
aI10671
aI6716
aI2582
aI11789
aI3435
aI8306
aI12270
aI7356
aI6712
aI8082
aI5391
aI5712
aI6827
aI1345
aI5869
aI925
aI10119
aI4098
aI13360
aI5791
aI12099
aI6919
aI974
aI7200
aI12608
aI11925
aI14632
aI12670
aI14252
aI818
aI7160
aI3493
aI5718
aI12824
aI3399
aI10158
aI10529
aI10474
aI8124
aI7322
aI5308
aI8698
aI11983
aI6594
aI7171
aI10057
aI8451
aI10585
aI28
aI3459
aI14336
aI3142
aI4652
aI13974
aI3084
aI3037
aI1548
aI9594
aI12039
aI13219
aI7158
aI7982
aI2248
aI7473
aI1376
aI11720
aI11431
aI11144
aI8576
aI8742
aI3551
aI1447
aI13059
aI11824
aI4501
aI12438
aI5755
aI11918
aI8825
aI14029
aI1546
aI10796
aI1835
aI4567
aI9024
aI4734
aI13034
aI1458
aI4598
aI1540
aI7493
aI5305
aI11027
aI4254
aI13280
aI2273
aI9025
aI13805
aI7234
aI13238
aI3650
aI12316
aI4613
aI7585
aI2741
aI4580
aI14054
aI9157
aI1946
aI730
aI13821
aI3462
aI10886
aI5290
aI14912
aI5330
aI8700
aI12790
aI690
aI5070
aI14317
aI6759
aI4640
aI4524
aI1354
aI11258
aI7207
aI6825
aI4568
aI10400
aI4637
aI13571
aI4584
aI8035
aI660
aI10724
aI13220
aI11646
aI12361
aI12947
aI9316
aI257
aI11653
aI1132
aI8210
aI4542
aI6532
aI2261
aI4821
aI11057
aI6335
aI7676
aI2286
aI4235
aI4484
aI5316
aI14364
aI7370
aI1997
aI774
aI4707
aI9229
aI5466
aI9957
aI13955
aI5136
aI11993
aI6475
aI6671
aI3375
aI4153
aI86
aI13290
aI12196
aI14262
aI11228
aI11719
aI10541
aI14357
aI4075
aI12887
aI10822
aI8379
aI813
aI11193
aI4609
aI2348
aI2387
aI2111
aI4633
aI7942
aI10828
aI9066
aI14051
aI5113
aI1109
aI1477
aI13696
aI6911
aI5874
aI3833
aI8098
aI10413
aI10953
aI698
aI1407
aI10218
aI2795
aI10152
aI12020
aI3863
aI771
aI209
aI12937
aI5898
aI13997
aI12842
aI15085
aI4372
aI4438
aI10117
aI6751
aI14652
aI12158
aI10308
aI12210
aI609
aI5769
aI4648
aI810
aI3838
aI15009
aI4439
aI4653
aI1522
aI6885
aI3101
aI6377
aI5134
aI10396
aI11224
aI2333
aI12279
aI7488
aI6762
aI14914
aI779
aI14013
aI7608
aI2103
aI6995
aI8092
aI13600
aI2418
aI1629
aI8438
aI10527
aI13980
aI4299
aI8043
aI6278
aI3886
aI12916
aI2380
aI9204
aI12622
aI4960
aI9083
aI13267
aI8954
aI4239
aI14970
aI12811
aI1500
aI2255
aI2250
aI13179
aI9020
aI11429
aI11650
aI45
aI789
aI1777
aI831
aI5104
aI14673
aI10627
aI8367
aI13701
aI8070
aI10955
aI13665
aI3894
aI14847
aI14597
aI2722
aI12753
aI12232
aI5137
aI973
aI14267
aI2758
aI6365
aI2649
aI13266
aI14638
aI14213
aI5102
aI10069
aI6955
aI3510
aI13594
aI7515
aI12757
aI5294
aI6368
aI12419
aI5078
aI5397
aI11666
aI5412
aI9166
aI12461
aI14485
aI8920
aI3443
aI5471
aI1028
aI14596
aI14483
aI5074
aI2126
aI34
aI9502
aI14028
aI3002
aI14439
aI78
aI7324
aI901
aI5708
aI4965
aI3296
aI11651
aI3067
aI12733
aI4616
aI2353
aI5109
aI9753
aI12551
aI13513
aI3016
aI14814
aI5115
aI2875
aI12171
aI4029
aI12914
aI12578
aI14813
aI14443
aI1419
aI8053
aI14663
aI9133
aI11622
aI2502
aI1581
aI8402
aI1223
aI4115
aI13918
aI13407
aI10040
aI354
aI12192
aI1778
aI11521
aI12736
aI14410
aI7255
aI13597
aI4140
aI12346
aI10560
aI11240
aI75
aI13008
aI8444
aI8051
aI6311
aI5117
aI9075
aI1808
aI12669
aI6227
aI7285
aI9187
aI11217
aI7301
aI14265
aI6912
aI2307
aI10180
aI12333
aI6250
aI1712
aI12172
aI14992
aI14442
aI3187
aI14305
aI6369
aI9150
aI7110
aI1066
aI5917
aI6968
aI3884
aI11628
aI6710
aI697
aI10599
aI6345
aI13688
aI13728
aI12573
aI13412
aI5997
aI6213
aI6870
aI3881
aI1022
aI3330
aI11695
aI147
aI5414
aI6477
aI7855
aI12231
aI1300
aI5855
aI2572
aI12017
aI4457
aI11743
aI11705
aI13440
aI12761
aI1243
aI7442
aI8599
aI13010
aI3523
aI11978
aI4979
aI12832
aI5804
aI9182
aI6845
aI416
aI11570
aI5188
aI6238
aI7856
aI543
aI1124
aI4311
aI6754
aI2993
aI4645
aI11121
aI754
aI3282
aI2812
aI13931
aI5631
aI12126
aI274
aI11966
aI14850
aI11528
aI11529
aI924
aI14242
aI14272
aI10612
aI7588
aI678
aI4822
aI13672
aI6835
aI4655
aI5949
aI6802
aI7081
aI6731
aI10974
aI4620
aI7263
aI8519
aI4657
aI6761
aI1900
aI1408
aI11940
aI2313
aI7018
aI13616
aI2388
aI4915
aI4451
aI792
aI6990
aI1675
aI972
aI4198
aI9535
aI5241
aI6247
aI13613
aI7257
aI12878
aI13986
aI4880
aI14783
aI12502
aI5822
aI14024
aI12289
aI3476
aI12647
aI9048
aI1918
aI3885
aI811
aI2065
aI8726
aI7788
aI2290
aI7059
aI7368
aI7138
aI4956
aI12307
aI10222
aI13791
aI1624
aI13996
aI13677
aI3761
aI4271
aI6841
aI4112
aI11980
aI12804
aI11016
aI4698
aI12371
aI5825
aI9319
aI1933
aI14870
aI1850
aI3895
aI2426
aI7923
aI6418
aI4370
aI14277
aI2325
aI7070
aI2234
aI12803
aI7221
aI8211
aI10546
aI13824
aI3446
aI7680
aI1853
aI1154
aI6467
aI2349
aI13029
aI5036
aI7870
aI3534
aI12596
aI4672
aI7111
aI12465
aI916
aI13890
aI11416
aI4506
aI13657
aI12191
aI4149
aI4768
aI4943
aI4983
aI1055
aI3430
aI4833
aI9255
aI7937
aI13098
aI9143
aI5782
aI8969
aI3660
aI8196
aI3752
aI9986
aI4042
aI7579
aI710
aI12096
aI13612
aI9105
aI2991
aI8314
aI13633
aI1489
aI5426
aI12820
aI5766
aI1267
aI1552
aI7601
aI11817
aI14261
aI15082
aI841
aI13950
aI12827
aI6874
aI10488
aI12493
aI11422
aI8242
aI2987
aI251
aI14270
aI7762
aI3506
aI12519
aI2866
aI12466
aI5801
aI3419
aI2309
aI14703
aI12695
aI7704
aI1857
aI5262
aI7193
aI13277
aI13380
aI4849
aI2300
aI11398
aI7891
aI7326
aI1088
aI11984
aI14964
aI12085
aI1269
aI1368
aI90
aI8409
aI5725
aI9159
aI13718
aI2260
aI8870
aI11951
aI14788
aI11392
aI5533
aI5425
aI2931
aI10235
aI3649
aI1820
aI296
aI7206
aI12200
aI7925
aI14534
aI14060
aI14296
aI5662
aI14066
aI14319
aI4103
aI12850
aI6873
aI5840
aI3901
aI3900
aI10821
aI15028
aI7754
aI6348
aI6595
aI5948
aI11968
aI907
aI13311
aI9155
aI3808
aI10750
aI10233
aI647
aI9087
aI194
aI7459
aI1067
aI2392
aI12730
aI5180
aI5343
aI13090
aI2930
aI8868
aI6224
aI13303
aI14802
aI2468
aI8315
aI7800
aI9092
aI2651
aI3722
aI12220
aI4932
aI10332
aI9197
aI14855
aI5477
aI10853
aI1919
aI13877
aI1516
aI4862
aI10536
aI12770
aI5175
aI8058
aI12049
aI8668
aI10855
aI854
aI282
aI10584
aI6592
aI12369
aI14868
aI9328
aI316
aI215
aI6741
aI9107
aI4116
aI4898
aI9251
aI14900
aI9291
aI9245
aI9285
aI309
aI8143
aI2998
aI14875
aI321
aI9250
aI10001
aI4612
aI6598
aI12494
aI14917
aI7692
aI12749
aI2064
aI3736
aI4005
aI4334
aI4348
aI8218
aI208
aI11478
aI10914
aI6605
aI1349
aI10735
aI5199
aI10380
aI8188
aI2116
aI7731
aI198
aI9407
aI7574
aI14854
aI210
aI2591
aI13326
aI10234
aI197
aI3414
aI1772
aI10232
aI6205
aI10303
aI1211
aI8862
aI8652
aI11706
aI11079
aI10408
aI15019
aI13714
aI3039
aI2475
aI8660
aI6901
aI13327
aI10010
aI731
aI5436
aI4236
aI1525
aI12288
aI12744
aI10744
aI7568
aI9335
aI12165
aI12865
aI14220
aI1747
aI2180
aI4865
aI11692
aI476
aI709
aI2762
aI6212
aI5342
aI4548
aI1496
aI1775
aI8981
aI8912
aI4359
aI4587
aI6281
aI3847
aI13297
aI8334
aI6732
aI4592
aI2596
aI3744
aI14758
aI4571
aI5040
aI13298
aI11781
aI11230
aI8913
aI8851
aI9538
aI1611
aI7144
aI10868
aI13662
aI11074
aI2338
aI13069
aI10614
aI4977
aI12552
aI13460
aI13312
aI12621
aI7042
aI10237
aI12563
aI7011
aI4667
aI3921
aI14102
aI3577
aI8816
aI7099
aI6859
aI8688
aI13461
aI718
aI7963
aI14203
aI6889
aI4634
aI14661
aI14943
aI6001
aI12127
aI7502
aI7543
aI5992
aI5780
aI7638
aI14425
aI4838
aI4729
aI1105
aI12857
aI1213
aI15076
aI6399
aI9000
aI3124
aI10759
aI2046
aI10685
aI1295
aI11936
aI10405
aI13462
aI11329
aI2389
aI13354
aI9227
aI3920
aI4230
aI10521
aI10574
aI9065
aI6964
aI10676
aI10652
aI2217
aI10120
aI4060
aI12677
aI9945
aI10571
aI7744
aI7688
aI6808
aI10633
aI12253
aI7974
aI4769
aI1286
aI1653
aI9226
aI11862
aI6937
aI7566
aI6796
aI2585
aI13165
aI11965
aI1358
aI4747
aI4799
aI5658
aI4537
aI8503
aI10533
aI3123
aI5814
aI10351
aI12640
aI4837
aI7505
aI12124
aI11421
aI11745
aI6832
aI368
aI11504
aI7795
aI8325
aI3509
aI8876
aI12485
aI1741
aI403
aI2790
aI5612
aI10547
aI11795
aI9896
aI1893
aI13355
aI11929
aI2579
aI7831
aI3727
aI11381
aI12496
aI7051
aI11462
aI3662
aI4780
aI12187
aI12295
aI1773
aI4750
aI10542
aI14234
aI9283
aI6252
aI2736
aI7723
aI6729
aI4980
aI7008
aI2189
aI6354
aI9206
aI4618
aI12276
aI4605
aI4464
aI5976
aI3827
aI6489
aI12396
aI4638
aI6294
aI10491
aI6264
aI633
aI3828
aI7163
aI14204
aI14202
aI7093
aI11493
aI12424
aI10178
aI6746
aI9302
aI7903
aI11320
aI9357
aI1212
aI6395
aI8820
aI11490
aI5966
aI9512
aI6210
aI2476
aI9359
aI424
aI13163
aI6910
aI4596
aI2421
aI15044
aI7281
aI4137
aI11771
aI8251
aI6946
aI8463
aI10850
aI15043
aI11280
aI4015
aI6704
aI3041
aI4697
aI7567
aI7495
aI6775
aI2224
aI14104
aI2216
aI6691
aI11746
aI14077
aI12447
aI13040
aI9977
aI9294
aI3724
aI2853
aI13842
aI7058
aI2807
aI4792
aI9377
aI10063
aI2859
aI7905
aI5522
aI1284
aI12446
aI2448
aI1108
aI216
aI6601
aI11913
aI6244
aI7282
aI4267
aI2447
aI4999
aI7695
aI10052
aI2561
aI2557
aI5663
aI14656
aI9802
aI2886
aI15038
aI8628
aI5732
aI1125
aI9951
aI5150
aI8049
aI10097
aI6306
aI13938
aI4790
aI5026
aI12541
aI12255
aI7718
aI9193
aI9132
aI2971
aI9757
aI9431
aI11437
aI9663
aI12841
aI5506
aI4740
aI10946
aI6805
aI7561
aI9600
aI1710
aI5683
aI7053
aI8434
aI8549
aI1903
aI14182
aI833
aI4949
aI6861
aI12182
aI2172
aI8592
aI4702
aI9398
aI6820
aI866
aI2580
aI9691
aI4778
aI14549
aI14099
aI12734
aI11089
aI1119
aI7384
aI9317
aI10415
aI11382
aI7452
aI7549
aI1941
aI11859
aI10580
aI4701
aI4309
aI3620
aI1751
aI4784
aI4735
aI12217
aI423
aI3516
aI14541
aI10945
aI11845
aI12822
aI5385
aI12902
aI5282
aI10729
aI5867
aI7964
aI4381
aI10731
aI10545
aI10447
aI10726
aI13191
aI12581
aI12889
aI2677
aI10317
aI4283
aI2645
aI2188
aI3756
aI9052
aI1570
aI4258
aI1469
aI13941
aI2599
aI7781
aI4783
aI11807
aI10889
aI5652
aI9693
aI2549
aI10865
aI8193
aI12251
aI10171
aI11435
aI5703
aI2681
aI9662
aI6848
aI2169
aI9370
aI5592
aI3655
aI15092
aI1121
aI14186
aI7746
aI14103
aI5365
aI8908
aI14979
aI13726
aI2624
aI9788
aI8634
aI9443
aI7874
aI3584
aI10876
aI10376
aI7664
aI14828
aI1470
aI4840
aI1593
aI7702
aI11681
aI5800
aI1698
aI3411
aI11957
aI7448
aI3368
aI1399
aI11030
aI2225
aI8654
aI10134
aI11774
aI421
aI1003
aI1448
aI2563
aI4474
aI8774
aI4843
aI5704
aI3257
aI5482
aI11091
aI8649
aI304
aI6947
aI3602
aI3251
aI13018
aI910
aI5706
aI7136
aI2959
aI13859
aI12676
aI5155
aI10896
aI5916
aI12137
aI2213
aI436
aI11479
aI8591
aI14982
aI7006
aI12219
aI11122
aI9608
aI6988
aI6944
aI7714
aI12108
aI10202
aI12529
aI14984
aI7490
aI5221
aI15064
aI13016
aI1406
aI3255
aI7400
aI283
aI4038
aI116
aI13255
aI15074
aI9540
aI14042
aI4241
aI2184
aI4265
aI1120
aI8113
aI11123
aI422
aI3109
aI5623
aI9685
aI10727
aI8964
aI10009
aI12986
aI11132
aI9396
aI3633
aI3612
aI5946
aI13056
aI2850
aI8977
aI2165
aI12309
aI7641
aI4689
aI5709
aI6980
aI7637
aI10660
aI10534
aI8936
aI7880
aI11
aI15073
aI2811
aI1436
aI10419
aI7643
aI8611
aI14249
aI14363
aI13061
aI4808
aI8658
aI6588
aI12025
aI3858
aI12497
aI6542
aI4200
aI8154
aI14289
aI8118
aI2254
aI11826
aI1466
aI8453
aI2699
aI7231
aI2045
aI7229
aI3423
aI13142
aI5764
aI4818
aI8074
aI9524
aI986
aI14867
aI9045
aI3683
aI2107
aI9054
aI4331
aI2593
aI4520
aI4678
aI4162
aI3360
aI752
aI1895
aI622
aI3559
aI10514
aI9046
aI4476
aI3780
aI983
aI3297
aI3571
aI13296
aI5173
aI10808
aI13183
aI9231
aI14923
aI1569
aI7893
aI4817
aI6353
aI9224
aI1761
aI2453
aI5570
aI10689
aI1092
aI8008
aI3424
aI10537
aI512
aI10538
aI10980
aI2732
aI14906
aI13359
aI10827
aI8914
aI8550
aI7137
aI11290
aI7920
aI8756
aI13068
aI8403
aI4253
aI2584
aI8109
aI10866
aI4718
aI1143
aI10389
aI5660
aI5481
aI5568
aI2200
aI12435
aI1630
aI11198
aI13306
aI12057
aI7032
aI11260
aI13184
aI6500
aI5593
aI2153
aI1017
aI4754
aI3979
aI13940
aI6806
aI9262
aI4483
aI8939
aI11331
aI13504
aI10851
aI3764
aI8733
aI10982
aI4373
aI6352
aI1852
aI11915
aI9258
aI9708
aI5217
aI2856
aI11347
aI14522
aI2092
aI7758
aI12763
aI11969
aI4365
aI3642
aI934
aI12741
aI6963
aI14276
aI7700
aI7409
aI9364
aI7428
aI9242
aI7550
aI2799
aI7519
aI2400
aI8386
aI9844
aI14995
aI2966
aI305
aI2662
aI4208
aI7000
aI6225
aI7432
aI9456
aI6315
aI7431
aI3784
aI4257
aI2806
aI13850
aI10932
aI14093
aI4169
aI10891
aI7892
aI9419
aI12568
aI7262
aI5479
aI1103
aI4059
aI9334
aI9899
aI5862
aI11177
aI5352
aI9999
aI8865
aI8863
aI8864
aI12616
aI13198
aI9421
aI14303
aI11816
aI8799
aI9784
aI2214
aI11886
aI15104
aI10897
aI3742
aI13654
aI4981
aI14503
aI15070
aI5154
aI13168
aI1171
aI54
aI15111
aI2678
aI1842
aI4353
aI8418
aI6223
aI13136
aI9378
aI12816
aI9480
aI8102
aI3256
aI13563
aI7705
aI9241
aI6711
aI51
aI2054
aI6552
aI2562
aI14177
aI4351
aI15072
aI11804
aI4517
aI11649
aI5863
aI7199
aI13865
aI14684
aI5423
aI3228
aI4829
aI506
aI9880
aI3844
aI3210
aI4805
aI6782
aI7399
aI1640
aI12571
aI9772
aI6623
aI8457
aI3619
aI9796
aI6810
aI6818
aI7465
aI4789
aI5062
aI5842
aI6816
aI4803
aI9688
aI12341
aI10893
aI1202
aI7204
aI2174
aI9449
aI5558
aI8734
aI2565
aI9232
aI2450
aI5586
aI7150
aI10326
aI6219
aI3893
aI1405
aI8431
aI14583
aI9867
aI9366
aI14135
aI2186
aI2183
aI10634
aI2757
aI12426
aI1595
aI11188
aI4349
aI2646
aI5295
aI1274
aI4463
aI14199
aI10448
aI7956
aI6987
aI8547
aI2051
aI14059
aI8356
aI7108
aI711
aI4346
aI775
aI11104
aI10453
aI9892
aI10621
aI3679
aI10223
aI6570
aI14542
aI4857
aI1665
aI10411
aI7292
aI13148
aI1564
aI10503
aI9654
aI2047
aI3639
aI10839
aI11488
aI9660
aI11844
aI9682
aI9389
aI8007
aI4157
aI6303
aI3422
aI707
aI2613
aI6617
aI333
aI708
aI11682
aI12330
aI5485
aI5913
aI10776
aI8966
aI2147
aI2679
aI3711
aI11612
aI2090
aI9209
aI5300
aI2566
aI10259
aI5049
aI1371
aI374
aI15045
aI9415
aI11110
aI8229
aI7542
aI5614
aI3952
aI14765
aI3412
aI9265
aI14449
aI11964
aI13019
aI5472
aI2615
aI11791
aI13944
aI11670
aI9789
aI8250
aI3125
aI14012
aI4839
aI932
aI1101
aI7546
aI488
aI11785
aI14491
aI7404
aI14178
aI14461
aI12382
aI2220
aI2223
aI9376
aI14742
aI5659
aI6166
aI10179
aI13863
aI7667
aI2975
aI11151
aI14499
aI10367
aI11206
aI12617
aI9661
aI715
aI7737
aI12904
aI11322
aI14295
aI11870
aI11418
aI495
aI10773
aI10983
aI12027
aI13331
aI5163
aI14193
aI11879
aI7809
aI7537
aI9080
aI6779
aI2181
aI1789
aI10880
aI5469
aI11439
aI6292
aI6299
aI12745
aI2185
aI4274
aI3121
aI5864
aI13320
aI15052
aI2347
aI9530
aI9192
aI13377
aI7223
aI2635
aI4244
aI12607
aI14407
aI3597
aI11229
aI9436
aI3770
aI4703
aI7578
aI8872
aI1394
aI6056
aI11465
aI9425
aI13249
aI5161
aI614
aI4178
aI10833
aI11391
aI13057
aI14184
aI610
aI5484
aI7072
aI12569
aI7843
aI13055
aI3019
aI10060
aI7875
aI14179
aI10740
aI1740
aI6443
aI10305
aI11276
aI2751
aI11850
aI7657
aI8807
aI7819
aI2733
aI6890
aI11939
aI3392
aI7779
aI7768
aI234
aI10915
aI14516
aI4289
aI10157
aI8806
aI15000
aI6523
aI726
aI10248
aI4071
aI10587
aI14146
aI9270
aI7540
aI9984
aI9759
aI12451
aI9518
aI2602
aI1410
aI14292
aI11861
aI10700
aI12259
aI4408
aI7151
aI11126
aI6966
aI7541
aI1271
aI9841
aI13539
aI6412
aI4383
aI5850
aI12746
aI8919
aI7713
aI5669
aI11133
aI4727
aI10531
aI8025
aI12691
aI10842
aI13120
aI13378
aI1744
aI7594
aI11213
aI10099
aI5257
aI11842
aI14171
aI2022
aI243
aI7378
aI5516
aI6781
aI2682
aI7996
aI2772
aI9135
aI14147
aI13175
aI4176
aI10758
aI3845
aI13167
aI11436
aI3072
aI9729
aI3762
aI2860
aI15057
aI11458
aI7240
aI7463
aI3778
aI1266
aI10463
aI12514
aI1014
aI13247
aI3451
aI13362
aI5345
aI14423
aI11485
aI10062
aI1384
aI10452
aI13209
aI2870
aI4085
aI2989
aI9710
aI9897
aI11932
aI1483
aI10329
aI2768
aI4816
aI3958
aI12082
aI7101
aI4942
aI6547
aI2364
aI10989
aI11313
aI8653
aI3925
aI3939
aI2571
aI5656
aI13467
aI4264
aI1357
aI4291
aI12320
aI11731
aI15054
aI10667
aI4414
aI2016
aI8720
aI2207
aI10368
aI10392
aI9918
aI7924
aI4284
aI3579
aI7334
aI6822
aI14986
aI7453
aI7644
aI14043
aI10112
aI13064
aI2723
aI2145
aI8921
aI515
aI14255
aI14899
aI12379
aI8483
aI14189
aI13337
aI9371
aI4290
aI8958
aI7451
aI8396
aI5816
aI5018
aI8114
aI14508
aI5824
aI13074
aI14083
aI11900
aI2049
aI6916
aI2204
aI14829
aI3408
aI8801
aI3171
aI14741
aI3913
aI1656
aI11383
aI10114
aI5572
aI6305
aI13743
aI10457
aI9539
aI7910
aI14501
aI2771
aI294
aI4797
aI11858
aI5584
aI10438
aI4300
aI10379
aI14929
aI7599
aI8656
aI2961
aI9536
aI14489
aI14571
aI14985
aI4064
aI7595
aI14610
aI4782
aI12627
aI8984
aI6512
aI12547
aI4088
aI14942
aI4444
aI7124
aI13155
aI13305
aI2440
aI14308
aI13116
aI9067
aI4446
aI14038
aI5821
aI4731
aI8928
aI12630
aI12443
aI10451
aI11102
aI2365
aI11756
aI2041
aI10834
aI13000
aI12831
aI8288
aI13463
aI7648
aI11937
aI3365
aI4360
aI10382
aI3700
aI748
aI4549
aI8681
aI2050
aI6875
aI567
aI11597
aI14723
aI8455
aI11363
aI1604
aI2673
aI7441
aI14430
aI7993
aI11316
aI10721
aI11251
aI554
aI10048
aI4767
aI929
aI11736
aI2411
aI7698
aI11702
aI13939
aI4510
aI11071
aI6417
aI6608
aI1239
aI3776
aI9372
aI9657
aI13308
aI5909
aI3460
aI6645
aI14343
aI10076
aI14025
aI14366
aI2152
aI4495
aI13256
aI10064
aI5507
aI4885
aI14195
aI13396
aI14858
aI14299
aI5432
aI12852
aI3873
aI12162
aI755
aI670
aI6815
aI4802
aI6831
aI13555
aI13268
aI1822
aI1323
aI5977
aI3659
aI14739
aI4708
aI13189
aI9452
aI5789
aI13131
aI4922
aI11131
aI962
aI15
aI169
aI11128
aI8410
aI11806
aI8299
aI5779
aI6189
aI1601
aI4809
aI6821
aI9269
aI6657
aI13143
aI8501
aI620
aI13879
aI15020
aI278
aI11986
aI4709
aI245
aI12190
aI5723
aI1520
aI4269
aI4388
aI6975
aI9736
aI13553
aI8471
aI6584
aI6788
aI12454
aI877
aI6027
aI11396
aI9433
aI4046
aI6683
aI1723
aI5248
aI9304
aI4687
aI1288
aI5901
aI1689
aI14070
aI13036
aI3481
aI6055
aI14616
aI6672
aI14801
aI1700
aI1719
aI7628
aI1164
aI1272
aI6382
aI7128
aI5577
aI3550
aI1110
aI7162
aI11413
aI12178
aI2508
aI2996
aI8139
aI14842
aI7677
aI11184
aI11975
aI1264
aI13141
aI13415
aI12728
aI2038
aI11617
aI3661
aI11241
aI11446
aI8308
aI402
aI6651
aI5803
aI1573
aI4025
aI3691
aI2522
aI447
aI7848
aI13799
aI664
aI1065
aI8433
aI13861
aI14074
aI3309
aI8422
aI6530
aI13731
aI10260
aI12335
aI3278
aI14487
aI3976
aI4800
aI2617
aI5596
aI7666
aI4681
aI2913
aI7235
aI13770
aI6514
aI2535
aI12380
aI5384
aI14952
aI5983
aI7662
aI5881
aI2618
aI1194
aI1970
aI12890
aI3005
aI2471
aI11723
aI14239
aI13316
aI3410
aI3617
aI1887
aI11698
aI11884
aI4695
aI14183
aI11093
aI12491
aI2178
aI9050
aI14496
aI4716
aI2303
aI2546
aI1063
aI5451
aI3482
aI14830
aI5982
aI4364
aI13698
aI5464
aI10292
aI13589
aI9852
aI2693
aI2517
aI8310
aI13706
aI14692
aI3941
aI9879
aI10086
aI1734
aI7087
aI15039
aI4065
aI1855
aI3157
aI348
aI14951
aI9037
aI2472
aI3520
aI6852
aI6391
aI6392
aI457
aI9718
aI13506
aI13808
aI8401
aI14027
aI12076
aI9447
aI14304
aI3433
aI1730
aI13798
aI5589
aI13374
aI5860
aI12273
aI3560
aI11882
aI12891
aI445
aI11822
aI8640
aI4858
aI8635
aI8663
aI8540
aI2139
aI12559
aI277
aI11343
aI12694
aI13528
aI9797
aI1081
aI13668
aI994
aI2868
aI12102
aI7226
aI2532
aI11233
aI3092
aI3022
aI9735
aI11107
aI14694
aI1188
aI10952
aI10589
aI14746
aI14335
aI5020
aI11192
aI2540
aI12567
aI942
aI13765
aI3386
aI6314
aI9115
aI964
aI13590
aI7719
aI5418
aI13157
aI6871
aI2962
aI4522
aI10985
aI2835
aI5595
aI4035
aI10713
aI4084
aI74
aI1289
aI2983
aI4819
aI9809
aI8245
aI11832
aI14400
aI2523
aI129
aI14953
aI12952
aI238
aI5653
aI13645
aI11847
aI3640
aI9312
aI242
aI4119
aI11933
aI9848
aI2209
aI3042
aI1404
aI5140
aI13617
aI5587
aI14168
aI1956
aI4382
aI1843
aI1651
aI10445
aI14422
aI10738
aI11792
aI12570
aI3252
aI1702
aI5637
aI11793
aI12689
aI7405
aI13832
aI8476
aI1183
aI11887
aI5562
aI3447
aI13787
aI5657
aI11476
aI11750
aI12755
aI8352
aI552
aI6492
aI2955
aI11632
aI13370
aI13160
aI10752
aI8513
aI4824
aI12283
aI2912
aI11384
aI11170
aI2616
aI2156
aI83
aI14173
aI13479
aI577
aI7834
aI6346
aI10442
aI5376
aI12134
aI11069
aI4339
aI13281
aI2976
aI7829
aI11773
aI14369
aI13707
aI3986
aI5367
aI5918
aI11134
aI8327
aI3043
aI12871
aI7624
aI10273
aI14937
aI11308
aI900
aI12398
aI4175
aI4173
aI8602
aI8461
aI5696
aI484
aI4705
aI5447
aI612
aI12972
aI4679
aI11456
aI14819
aI5890
aI5575
aI11167
aI11511
aI637
aI5832
aI9414
aI2021
aI12840
aI8884
aI9613
aI608
aI10694
aI12976
aI3363
aI517
aI3070
aI9825
aI2044
aI4051
aI12005
aI9728
aI574
aI11039
aI14509
aI1293
aI11531
aI11909
aI9676
aI12476
aI9576
aI10044
aI12795
aI8447
aI9818
aI847
aI14767
aI13490
aI5416
aI927
aI1064
aI9574
aI12169
aI3024
aI5421
aI12939
aI856
aI13515
aI8424
aI13573
aI13891
aI13892
aI11103
aI5495
aI12765
aI1147
aI12654
aI5473
aI14531
aI5225
aI3531
aI8448
aI3221
aI4072
aI14724
aI5383
aI9901
aI6390
aI3716
aI12109
aI2883
aI15016
aI5382
aI4014
aI11265
aI11359
aI14468
aI2410
aI13558
aI14113
aI12588
aI8485
aI6602
aI3638
aI2611
aI13211
aI9781
aI8673
aI7288
aI3342
aI2053
aI2884
aI14752
aI3578
aI8260
aI9675
aI13498
aI7508
aI5470
aI14003
aI9161
aI12653
aI7095
aI8142
aI12863
aI9233
aI1118
aI5745
aI1515
aI1157
aI12792
aI4713
aI14256
aI3341
aI5198
aI2836
aI5019
aI3757
aI14136
aI13122
aI3779
aI463
aI8527
aI12478
aI1838
aI13958
aI5681
aI4310
aI10935
aI14009
aI1974
aI3301
aI758
aI2036
aI4413
aI8949
aI6105
aI2885
aI450
aI5428
aI14428
aI13386
aI10844
aI926
aI14749
aI2195
aI14039
aI8866
aI5491
aI3533
aI9981
aI6404
aI7472
aI9380
aI9670
aI3454
aI8844
aI337
aI10911
aI2237
aI3006
aI6362
aI14559
aI11460
aI14916
aI2443
aI13738
aI4070
aI10829
aI14820
aI12455
aI3748
aI9683
aI9392
aI4762
aI3069
aI14621
aI9550
aI5031
aI14766
aI6778
aI12851
aI4683
aI6768
aI4693
aI6773
aI13233
aI14421
aI5930
aI2832
aI11701
aI9807
aI12475
aI1061
aI4968
aI4252
aI12202
aI4884
aI592
aI11345
aI971
aI12748
aI699
aI510
aI5086
aI5465
aI14562
aI1216
aI7620
aI12665
aI1905
aI5504
aI11156
aI12758
aI11346
aI13454
aI4272
aI6526
aI11361
aI992
aI14403
aI4758
aI8793
aI5967
aI2302
aI9127
aI5165
aI12417
aI12855
aI4888
aI171
aI13329
aI235
aI14440
aI2123
aI1324
aI6038
aI11376
aI3061
aI6952
aI13017
aI12495
aI985
aI11327
aI12940
aI3094
aI9787
aI7769
aI5871
aI10564
aI11716
aI3753
aI6517
aI4987
aI6128
aI3355
aI4895
aI8342
aI4871
aI14718
aI5731
aI6819
aI5544
aI5496
aI4806
aI14312
aI4726
aI13575
aI12701
aI12979
aI9572
aI9442
aI5166
aI10231
aI11397
aI9320
aI6104
aI392
aI13887
aI1643
aI6829
aI8140
aI7814
aI12800
aI12742
aI13307
aI6771
aI7878
aI7077
aI1344
aI1979
aI1111
aI5226
aI6767
aI14574
aI1417
aI14368
aI10892
aI12688
aI1077
aI9147
aI1481
aI13079
aI2788
aI2896
aI6325
aI15107
aI14185
aI1396
aI12384
aI11019
aI11393
aI14769
aI4096
aI5207
aI3060
aI5727
aI10032
aI692
aI3029
aI14568
aI4142
aI598
aI14497
aI2148
aI227
aI12047
aI4363
aI7389
aI8123
aI13914
aI12241
aI5279
aI3056
aI685
aI5877
aI2004
aI12430
aI7345
aI6118
aI10187
aI2902
aI2463
aI44
aI12181
aI14238
aI13608
aI7661
aI11516
aI2192
aI3558
aI4099
aI14285
aI5347
aI1478
aI22
aI5973
aI11017
aI1945
aI14824
aI13659
aI6
aI12623
aI6119
aI2779
aI2323
aI14297
aI10790
aI8612
aI12386
aI1000
aI5335
aI2407
aI12879
aI464
aI11574
aI6747
aI5041
aI5147
aI14065
aI11148
aI5272
aI14047
aI5234
aI3903
aI3737
aI11623
aI8942
aI6002
aI10904
aI3267
aI3170
aI9284
aI13473
aI276
aI12988
aI10593
aI430
aI14424
aI5557
aI4773
aI8220
aI13607
aI1228
aI8679
aI12342
aI369
aI4347
aI14624
aI3763
aI5475
aI1662
aI6928
aI11717
aI8744
aI11117
aI7
aI10121
aI14472
aI8427
aI10648
aI753
aI11042
aI4047
aI666
aI12649
aI9040
aI14046
aI13992
aI13130
aI13221
aI14345
aI1468
aI7447
aI2318
aI5569
aI7388
aI11829
aI13610
aI14021
aI11654
aI8091
aI10039
aI1129
aI2356
aI5542
aI13634
aI14589
aI11250
aI12291
aI10926
aI14669
aI2398
aI2438
aI3384
aI3243
aI13635
aI12336
aI2199
aI7605
aI14011
aI6178
aI2095
aI10007
aI14393
aI13026
aI6254
aI836
aI13203
aI1035
aI10147
aI11401
aI4426
aI1720
aI14018
aI9877
aI14045
aI9499
aI1480
aI3951
aI7899
aI3380
aI12238
aI2604
aI14063
aI11021
aI5705
aI3304
aI5737
aI921
aI966
aI3000
aI10659
aI6488
aI3337
aI14067
aI4462
aI1432
aI3535
aI14429
aI13577
aI1951
aI11594
aI5044
aI9162
aI14053
aI5608
aI8517
aI11525
aI6267
aI14777
aI8798
aI3438
aI15003
aI7968
aI5350
aI9485
aI2428
aI11700
aI8722
aI10302
aI14707
aI1936
aI15007
aI14921
aI13375
aI12663
aI3719
aI4393
aI12870
aI11077
aI7189
aI4143
aI10138
aI1059
aI9489
aI10792
aI14853
aI8209
aI14869
aI15053
aI13666
aI1971
aI10486
aI2594
aI8595
aI9534
aI8725
aI1776
aI3580
aI10526
aI5799
aI8320
aI10645
aI2081
aI6583
aI4356
aI8073
aI14322
aI6733
aI4325
aI6272
aI4298
aI11690
aI13314
aI2298
aI4238
aI10362
aI1392
aI4597
aI7139
aI2420
aI10293
aI13248
aI4327
aI2977
aI14279
aI4194
aI3993
aI2110
aI14519
aI7458
aI8569
aI14502
aI3686
aI12897
aI1332
aI4165
aI11973
aI12618
aI14915
aI11029
aI2575
aI9076
aI15083
aI3466
aI3611
aI3610
aI1068
aI11423
aI14789
aI11648
aI11959
aI4378
aI11949
aI2794
aI12900
aI5872
aI6209
aI7020
aI9217
aI6872
aI4825
aI9211
aI6323
aI11239
aI2399
aI9394
aI280
aI8195
aI2304
aI11947
aI3461
aI2510
aI8319
aI14282
aI7178
aI1613
aI7889
aI3891
aI9152
aI10654
aI1908
aI7084
aI2268
aI8719
aI7900
aI9064
aI8076
aI7258
aI969
aI8038
aI4990
aI1571
aI1042
aI4823
aI8902
aI7602
aI6826
aI10617
aI6737
aI4606
aI12304
aI12837
aI9609
aI10898
aI14646
aI10475
aI3377
aI6538
aI1058
aI12266
aI12203
aI4303
aI2187
aI15002
aI2789
aI1982
aI6978
aI12310
aI12574
aI6245
aI6053
aI1625
aI6843
aI8108
aI13173
aI10662
aI10417
aI2586
aI12839
aI2359
aI7825
aI14974
aI1981
aI5676
aI7894
aI14966
aI8662
aI13921
aI13615
aI6439
aI9016
aI13801
aI8473
aI4873
aI6935
aI14790
aI6971
aI1208
aI4073
aI7995
aI5852
aI4193
aI804
aI2834
aI8430
aI6721
aI2256
aI5848
aI5480
aI4636
aI11619
aI11348
aI6058
aI878
aI3136
aI249
aI6201
aI1688
aI3015
aI3281
aI13459
aI5037
aI10091
aI2780
aI2719
aI1583
aI2982
aI9861
aI14215
aI6749
aI2665
aI5786
aI9424
aI6176
aI30
aI4945
aI4558
aI13595
aI2164
aI2210
aI2656
aI2033
aI11530
aI14237
aI8158
aI13410
aI13009
aI1270
aI2155
aI13447
aI1123
aI6518
aI10137
aI6094
aI14967
aI4896
aI10140
aI2406
aI1311
aI3477
aI4508
aI6262
aI11680
aI1875
aI1456
aI4528
aI5280
aI2390
aI961
aI6032
aI1904
aI6153
aI8706
aI12716
aI8955
aI14654
aI14557
aI8054
aI11703
aI11994
aI14198
aI11092
aI5834
aI10799
aI1998
aI11652
aI11220
aI360
aI1566
aI2707
aI15041
aI6883
aI7694
aI13963
aI11351
aI10465
aI6275
aI6261
aI12459
aI11473
aI8580
aI8581
aI8214
aI13632
aI1009
aI2099
aI12943
aI9568
aI2745
aI4629
aI10924
aI6758
aI344
aI217
aI12207
aI2925
aI14805
aI3011
aI13477
aI14062
aI10046
aI160
aI8791
aI8230
aI5121
aI12473
aI13710
aI809
aI5743
aI11982
aI13403
aI6141
aI6268
aI935
aI4091
aI13432
aI11996
aI6893
aI13592
aI5271
aI2708
aI6698
aI9949
aI14737
aI1661
aI13754
aI8417
aI11204
aI11022
aI7616
aI5607
aI8419
aI8821
aI7466
aI1800
aI13449
aI2005
aI7607
aI12246
aI148
aI5149
aI4110
aI11580
aI10167
aI5406
aI11261
aI3948
aI14259
aI12558
aI630
aI8523
aI7514
aI6020
aI10406
aI380
aI11145
aI822
aI12222
aI3878
aI7425
aI6181
aI2040
aI14050
aI7857
aI1906
aI3318
aI12098
aI4972
aI4126
aI4492
aI2999
aI5692
aI68
aI1443
aI3609
aI4985
aI10962
aI4978
aI5278
aI12159
aI746
aI8257
aI13993
aI14484
aI1591
aI10204
aI12782
aI6069
aI7865
aI12801
aI12667
aI11150
aI9313
aI5111
aI7319
aI5807
aI11683
aI5599
aI2478
aI2423
aI2845
aI12332
aI14365
aI176
aI12242
aI46
aI5120
aI14791
aI3381
aI14617
aI3646
aI2381
aI142
aI6000
aI1836
aI11001
aI777
aI4552
aI1142
aI9585
aI3131
aI3012
aI8234
aI14056
aI2817
aI2176
aI5907
aI3306
aI8062
aI2482
aI6632
aI5051
aI5582
aI1420
aI5286
aI10068
aI1762
aI10420
aI5357
aI1174
aI5929
aI5750
aI1491
aI3801
aI2408
aI1176
aI7517
aI607
aI9843
aI13803
aI1413
aI13568
aI12453
aI2331
aI5340
aI2355
aI409
aI9023
aI4328
aI5875
aI12590
aI7673
aI13954
aI3014
aI3018
aI7105
aI596
aI7381
aI7361
aI9213
aI1400
aI5002
aI12226
aI6372
aI9591
aI6490
aI14849
aI1238
aI1418
aI7100
aI12194
aI2843
aI14768
aI11252
aI9750
aI12322
aI7371
aI13760
aI4174
aI4154
aI4887
aI10939
aI5322
aI3973
aI6386
aI8122
aI8309
aI13951
aI3442
aI5583
aI5060
aI8997
aI2838
aI8583
aI7551
aI1290
aI1062
aI13444
aI2201
aI10271
aI6088
aI11505
aI9324
aI4068
aI11263
aI879
aI11303
aI149
aI8788
aI12510
aI8452
aI8192
aI3472
aI4869
aI2905
aI863
aI3820
aI12431
aI7949
aI9514
aI6503
aI9513
aI12638
aI5110
aI11664
aI1947
aI9493
aI2730
aI6317
aI11271
aI4295
aI1609
aI9544
aI8781
aI5124
aI33
aI10888
aI6126
aI4468
aI2096
aI76
aI13630
aI3821
aI6476
aI4964
aI15008
aI1759
aI13736
aI433
aI13405
aI7030
aI13702
aI13846
aI2906
aI677
aI15102
aI9178
aI6269
aI4125
aI4001
aI14729
aI10757
aI6653
aI341
aI2874
aI10620
aI157
aI12639
aI7971
aI14377
aI5565
aI4117
aI3483
aI2068
aI10912
aI7734
aI6063
aI7498
aI4830
aI8817
aI4000
aI5937
aI6695
aI377
aI12582
aI9305
aI14530
aI12077
aI12026
aI9237
aI10082
aI9648
aI12119
aI6900
aI9175
aI8017
aI602
aI5214
aI5215
aI3051
aI11697
aI5830
aI13493
aI10272
aI12942
aI1080
aI14257
aI2077
aI1587
aI3960
aI11779
aI14463
aI10717
aI12504
aI6575
aI8805
aI13013
aI13537
aI6394
aI9835
aI3616
aI1280
aI2963
aI4061
aI10443
aI2857
aI2986
aI7241
aI3819
aI10225
aI2547
aI5754
aI9620
aI6023
aI2012
aI11801
aI651
aI4712
aI13999
aI7552
aI7560
aI5448
aI4467
aI3664
aI5993
aI3547
aI9214
aI6367
aI8803
aI12410
aI14941
aI9804
aI8636
aI518
aI3469
aI2030
aI11054
aI4002
aI9142
aI7960
aI10778
aI9308
aI11321
aI11140
aI4986
aI8275
aI6432
aI1262
aI13562
aI12713
aI6451
aI5627
aI14955
aI7626
aI4889
aI11083
aI14834
aI10854
aI4053
aI13838
aI3046
aI6700
aI6807
aI6659
aI14662
aI1969
aI4095
aI3916
aI9857
aI3705
aI12239
aI8272
aI9741
aI8312
aI9714
aI5405
aI483
aI3981
aI12474
aI11041
aI1199
aI11214
aI13042
aI14108
aI6090
aI629
aI467
aI2638
aI7097
aI10768
aI1612
aI82
aI11274
aI10020
aI38
aI11248
aI8664
aI14406
aI6217
aI11987
aI9427
aI14176
aI3586
aI15099
aI9887
aI10267
aI1757
aI5130
aI7411
aI9174
aI9124
aI1236
aI8795
aI9006
aI6012
aI12351
aI643
aI8326
aI12071
aI7630
aI1622
aI2150
aI4876
aI10253
aI14895
aI7247
aI12771
aI9665
aI8349
aI9916
aI8826
aI9484
aI6603
aI9252
aI9888
aI6896
aI1753
aI4341
aI13947
aI14137
aI6444
aI12909
aI2926
aI7862
aI7623
aI5728
aI11404
aI957
aI6895
aI9926
aI3326
aI14938
aI3674
aI14138
aI12132
aI7859
aI4044
aI10288
aI9706
aI13793
aI5072
aI11537
aI7622
aI9634
aI12411
aI6195
aI6622
aI3995
aI3214
aI12971
aI14903
aI7075
aI13409
aI1821
aI3589
aI4390
aI2432
aI5525
aI5524
aI3262
aI6293
aI14716
aI6413
aI6421
aI9404
aI5566
aI6850
aI4182
aI10347
aI561
aI9803
aI1385
aI11011
aI7741
aI6015
aI6087
aI12413
aI689
aI3843
aI4048
aI7944
aI601
aI14152
aI3582
aI3201
aI12397
aI9331
aI9770
aI11899
aI9137
aI12846
aI5707
aI14492
aI2577
aI8318
aI8190
aI10275
aI10922
aI6932
aI6342
aI3045
aI6185
aI10279
aI5338
aI7685
aI4040
aI2569
aI7036
aI12910
aI3468
aI10042
aI3329
aI2394
aI9207
aI14753
aI102
aI3496
aI7629
aI12710
aI13848
aI11762
aI9009
aI9619
aI13499
aI9658
aI3704
aI4684
aI4336
aI8886
aI8411
aI7547
aI10779
aI9734
aI13514
aI8916
aI3139
aI13532
aI9808
aI11337
aI5228
aI13535
aI4860
aI475
aI12211
aI13205
aI9938
aI575
aI167
aI2804
aI6419
aI2803
aI1152
aI164
aI13580
aI13486
aI11046
aI287
aI3279
aI5441
aI11603
aI1524
aI658
aI6148
aI2844
aI13476
aI8623
aI1182
aI14004
aI11686
aI8324
aI8582
aI12150
aI13819
aI4946
aI9858
aI3263
aI12723
aI11300
aI114
aI7562
aI7168
aI14803
aI4544
aI14744
aI1434
aI10080
aI8267
aI11262
aI3768
aI115
aI11370
aI1230
aI6501
aI8347
aI12810
aI10041
aI6393
aI9760
aI14334
aI4041
aI11036
aI10278
aI6175
aI2927
aI739
aI13496
aI12488
aI3244
aI11503
aI6664
aI3215
aI3350
aI13388
aI325
aI14419
aI1913
aI6259
aI13762
aI13495
aI3795
aI2397
aI5802
aI6613
aI384
aI10862
aI11333
aI14330
aI10672
aI2526
aI13581
aI12004
aI4473
aI14555
aI3504
aI5762
aI13127
aI13679
aI10562
aI12173
aI10208
aI6502
aI7373
aI6093
aI7355
aI7456
aI13516
aI9737
aI6067
aI6878
aI4389
aI6765
aI9762
aI14076
aI1388
aI6938
aI8481
aI8477
aI12703
aI11841
aI10525
aI2942
aI11711
aI14109
aI3230
aI3991
aI13387
aI8764
aI285
aI8639
aI11031
aI6699
aI3710
aI56
aI10397
aI2947
aI11244
aI9700
aI9120
aI1040
aI2946
aI8968
aI36
aI2083
aI3050
aI5674
aI1445
aI14386
aI5437
aI7679
aI6977
aI4765
aI3270
aI13723
aI8877
aI10276
aI9669
aI8605
aI302
aI11040
aI3325
aI6100
aI6527
aI11455
aI13117
aI5223
aI7467
aI5505
aI11722
aI10261
aI4991
aI224
aI6917
aI8613
aI9827
aI9327
aI784
aI13066
aI2671
aI14266
aI1096
aI271
aI13827
aI13851
aI10841
aI9531
aI1825
aI1421
aI9238
aI12613
aI10395
aI11155
aI12014
aI13274
aI14904
aI8597
aI1315
aI6992
aI4424
aI11082
aI5851
aI435
aI7349
aI7946
aI415
aI2717
aI1429
aI3955
aI13078
aI10166
aI11424
aI14897
aI4374
aI24
aI1100
aI12107
aI9478
aI9928
aI8531
aI2361
aI4428
aI1294
aI6626
aI11658
aI7348
aI6057
aI11896
aI6150
aI6640
aI11086
aI10804
aI7385
aI15106
aI7826
aI3631
aI12534
aI3212
aI11926
aI4419
aI11563
aI5776
aI9295
aI8353
aI10290
aI5013
aI4432
aI5638
aI3703
aI11088
aI10217
aI11500
aI13199
aI14963
aI6091
aI14618
aI10028
aI7243
aI5760
aI13687
aI14572
aI96
aI9236
aI13207
aI11373
aI6071
aI1929
aI11522
aI13201
aI5239
aI12480
aI1704
aI9286
aI6233
aI13864
aI11186
aI3803
aI14683
aI13230
aI3806
aI2939
aI528
aI11898
aI4459
aI492
aI5420
aI9365
aI8770
aI81
aI1897
aI13902
aI9766
aI10088
aI13903
aI10307
aI7364
aI8200
aI4375
aI2538
aI7965
aI9466
aI9362
aI14715
aI10455
aI14253
aI869
aI3237
aI9184
aI8185
aI7321
aI500
aI12941
aI8729
aI11052
aI549
aI14467
aI14714
aI10266
aI80
aI6673
aI10668
aI477
aI112
aI1493
aI9230
aI6054
aI14556
aI10212
aI11549
aI7014
aI13652
aI10472
aI10742
aI7027
aI5011
aI8646
aI5172
aI10743
aI12609
aI7970
aI8567
aI3428
aI1743
aI10966
aI14464
aI3420
aI448
aI12679
aI10144
aI12847
aI3464
aI11499
aI9794
aI12858
aI6167
aI12767
aI8228
aI10335
aI2985
aI11355
aI6302
aI2509
aI10264
aI10460
aI13342
aI14660
aI10986
aI13014
aI14936
aI8276
aI12611
aI5017
aI2014
aI8407
aI3154
aI2018
aI6481
aI306
aI9282
aI14576
aI13242
aI13077
aI13392
aI10424
aI9749
aI13045
aI3177
aI3879
aI5061
aI13231
aI3708
aI7525
aI11459
aI3668
aI110
aI10296
aI644
aI872
aI1296
aI1006
aI11908
aI10688
aI11881
aI6157
aI358
aI13076
aI10245
aI6621
aI12996
aI13794
aI14795
aI12981
aI13285
aI13591
aI1024
aI12355
aI11425
aI10913
aI11772
aI13541
aI8303
aI4458
aI12634
aI13423
aI4391
aI2132
aI9632
aI13284
aI10115
aI13408
aI6680
aI3449
aI12995
aI13369
aI6596
aI259
aI12223
aI9855
aI10321
aI2937
aI5742
aI5048
aI12007
aI13721
aI11662
aI12428
aI10553
aI11044
aI12766
aI11282
aI4745
aI7002
aI557
aI1828
aI3465
aI6174
aI10748
aI9110
aI11243
aI11523
aI9633
aI1649
aI3552
aI9647
aI6591
aI875
aI591
aI3521
aI11800
aI5233
aI8578
aI11484
aI2519
aI10072
aI5927
aI13987
aI14390
aI13599
aI532
aI2944
aI9763
aI5784
aI5715
aI1856
aI11600
aI9692
aI13046
aI13503
aI9111
aI10081
aI10579
aI4959
aI4454
aI15059
aI13606
aI379
aI10412
aI3507
aI10355
aI6663
aI3463
aI459
aI13500
aI6183
aI3880
aI9183
aI2877
aI13526
aI9792
aI6445
aI4532
aI10554
aI4043
aI4121
aI165
aI3152
aI3804
aI8171
aI2980
aI9953
aI1048
aI2236
aI5259
aI11185
aI8265
aI14082
aI13667
aI10238
aI5811
aI6287
aI5604
aI4055
aI404
aI12032
aI7435
aI11712
aI10255
aI5554
aI6117
aI10859
aI10172
aI12146
aI14778
aI3965
aI107
aI11237
aI10393
aI5849
aI13816
aI1854
aI1016
aI6956
aI6448
aI14081
aI6449
aI10861
aI541
aI8201
aI6149
aI3852
aI12612
aI2395
aI6615
aI6611
aI4471
aI13139
aI3344
aI10345
aI11212
aI4012
aI12508
aI12
aI10277
aI13151
aI137
aI3091
aI5744
aI14188
aI13330
aI8261
aI8423
aI2559
aI4221
aI5298
aI14370
aI508
aI14026
aI13529
aI2948
aI11162
aI4054
aI14643
aI14130
aI14488
aI8695
aI13021
aI3682
aI8280
aI8160
aI2370
aI6047
aI3797
aI5122
aI1306
aI329
aI3587
aI9058
aI2552
aI15050
aI12991
aI553
aI5474
aI4104
aI5445
aI5297
aI6936
aI9721
aI12725
aI828
aI5563
aI1427
aI6092
aI7634
aI4234
aI3287
aI9687
aI11663
aI5567
aI8667
aI3327
aI3
aI6043
aI9249
aI3096
aI10670
aI14367
aI7506
aI1541
aI6662
aI11059
aI13905
aI9543
aI10882
aI5774
aI8694
aI8727
aI136
aI14040
aI8918
aI9919
aI5032
aI8393
aI10427
aI14236
aI14743
aI10079
aI8752
aI1885
aI6364
aI2672
aI446
aI8498
aI9746
aI10669
aI9450
aI4003
aI8317
aI2015
aI10947
aI14218
aI2270
aI13001
aI11179
aI7396
aI10135
aI12458
aI8709
aI2660
aI11704
aI2992
aI10422
aI13229
aI10673
aI2028
aI9049
aI1025
aI5289
aI5615
aI161
aI10581
aI10456
aI2035
aI14579
aI222
aI9931
aI3183
aI5118
aI10431
aI5510
aI5417
aI10856
aI10067
aI9278
aI7522
aI11380
aI12069
aI11208
aI5493
aI6371
aI2687
aI1916
aI3250
aI12513
aI13579
aI8292
aI7446
aI1869
aI8675
aI737
aI10468
aI2914
aI5561
aI9277
aI6813
aI2890
aI6089
aI14192
aI4404
aI5620
aI9829
aI1151
aI10341
aI9202
aI13624
aI5153
aI13755
aI5651
aI3356
aI14100
aI1257
aI141
aI7554
aI6483
aI13561
aI340
aI10444
aI326
aI7239
aI2846
aI3195
aI11038
aI11839
aI5797
aI8115
aI10148
aI12319
aI1707
aI2513
aI10113
aI5398
aI1002
aI7310
aI2442
aI9532
aI10244
aI10297
aI1849
aI2816
aI6383
aI5924
aI2023
aI13115
aI8357
aI10806
aI14940
aI7484
aI10805
aI12415
aI10205
aI556
aI13140
aI3963
aI10214
aI7611
aI8776
aI8468
aI5845
aI14107
aI3823
aI9820
aI10269
aI11340
aI11234
aI14500
aI6635
aI9
aI9310
aI1189
aI12353
aI13272
aI3111
aI473
aI8164
aI482
aI11369
aI13730
aI5729
aI8961
aI474
aI14740
aI6638
aI162
aI7088
aI3676
aI8322
aI15055
aI4954
aI7403
aI8773
aI13952
aI8345
aI3864
aI1826
aI221
aI7379
aI3236
aI3323
aI48
aI7152
aI4074
aI11635
aI13684
aI3967
aI7269
aI2878
aI13206
aI13686
aI281
aI733
aI9190
aI5827
aI13047
aI6152
aI12738
aI6625
aI1877
aI7438
aI14000
aI3641
aI1402
aI3226
aI9667
aI8775
aI9123
aI14712
aI10066
aI8268
aI3595
aI10163
aI3594
aI1876
aI6177
aI11569
aI6634
aI4955
aI10780
aI12501
aI2911
aI10681
aI10258
aI3636
aI12731
aI2855
aI4427
aI1824
aI8771
aI4199
aI735
aI13395
aI536
aI3151
aI11334
aI4516
aI3030
aI14020
aI546
aI11866
aI13524
aI3892
aI10860
aI451
aI6284
aI7074
aI13866
aI5368
aI343
aI14905
aI7950
aI9369
aI9463
aI10346
aI3238
aI8833
aI8534
aI9651
aI14865
aI1415
aI11921
aI2935
aI9261
aI8329
aI13494
aI4023
aI8647
aI3253
aI10211
aI10909
aI14862
aI5258
aI2924
aI3413
aI11081
aI3872
aI63
aI3788
aI8256
aI10908
aI12391
aI8183
aI432
aI11905
aI2934
aI104
aI134
aI1169
aI4961
aI4512
aI568
aI868
aI6994
aI11344
aI12896
aI12390
aI6328
aI6637
aI3239
aI8180
aI6654
aI595
aI10377
aI11426
aI13113
aI9998
aI3810
aI9200
aI9119
aI10159
aI9755
aI13501
aI14068
aI1416
aI871
aI9234
aI3308
aI3824
aI420
aI4183
aI13871
aI13315
aI11988
aI11215
aI13147
aI14582
aI2512
aI9832
aI13118
aI9422
aI12125
aI240
aI9264
aI12697
aI13778
aI12083
aI12121
aI3474
aI11838
aI12907
aI8940
aI12106
aI4941
aI4179
aI12999
aI13286
aI10280
aI14291
aI8104
aI3357
aI8221
aI14106
aI6998
aI11868
aI5650
aI3922
aI5006
aI12964
aI6115
aI9235
aI2901
aI6959
aI494
aI10185
aI11863
aI2202
aI10479
aI13750
aI11766
aI6650
aI3300
aI12524
aI9307
aI6482
aI13270
aI10492
aI4425
aI12113
aI10143
aI6644
aI14569
aI10990
aI7205
aI3220
aI3718
aI3793
aI14450
aI8648
aI7684
aI13875
aI7023
aI441
aI11749
aI5777
aI13171
aI5700
aI13172
aI12263
aI11990
aI10810
aI10809
aI3905
aI5753
aI2603
aI9722
aI12115
aI6646
aI8278
aI11201
aI14859
aI558
aI13361
aI8950
aI1639
aI8398
aI3489
aI13982
aI14090
aI6647
aI12328
aI12522
aI6127
aI6543
aI7266
aI2871
aI9301
aI10567
aI13852
aI8281
aI10177
aI3417
aI13225
aI10366
aI3564
aI13882
aI13154
aI3565
aI10559
aI12808
aI9311
aI268
aI14086
aI11748
aI10315
aI6165
aI7703
aI13724
aI10353
aI8772
aI3313
aI13815
aI4011
aI716
aI8144
aI9106
aI571
aI10755
aI12445
aI586
aI8841
aI50
aI7697
aI10772
aI13542
aI8231
aI11730
aI418
aI7055
aI14275
aI9322
aI4827
aI3429
aI3076
aI909
aI8780
aI13020
aI5092
aI8909
aI8849
aI6851
aI0
aI14722
aI3254
aI14301
aI7382
aI8258
aI1711
aI5486
aI4929
aI11945
aI13223
aI7998
aI2778
aI13161
aI8363
aI4725
aI9173
aI15042
aI13182
aI5386
aI8721
aI10338
aI9266
aI12854
aI7245
aI6868
aI6905
aI11218
aI11872
aI7699
aI11136
aI11923
aI7035
aI13508
aI13015
aI8575
aI8854
aI7412
aI7935
aI6692
aI9656
aI11784
aI4266
aI11197
aI10930
aI11934
aI13510
aI5387
aI14866
aI9267
aI11775
aI7748
aI7890
aI5139
aI1335
aI1321
aI6191
aI7745
aI665
aI4052
aI12114
aI8957
aI12267
aI7709
aI11656
aI5379
aI8867
aI14180
aI12515
aI14950
aI14196
aI1291
aI3940
aI12610
aI8277
aI4421
aI10493
aI4950
aI11419
aI12593
aI13533
aI8020
aI7287
aI14629
aI8284
aI9171
aI5624
aI13300
aI6915
aI7267
aI8167
aI6473
aI13200
aI9129
aI5144
aI4318
aI564
aI1244
aI874
aI5346
aI2892
aI8619
aI4078
aI4953
aI6051
aI8620
aI4159
aI84
aI13820
aI10327
aI5886
aI14796
aI12577
aI14030
aI11713
aI7887
aI8456
aI4918
aI5059
aI6541
aI1714
aI862
aI7545
aI12778
aI3126
aI2833
aI1695
aI6668
aI4022
aI10784
aI10951
aI2848
aI13517
aI6197
aI2837
aI12598
aI7750
aI8559
aI14096
aI12479
aI11874
aI8274
aI10794
aI8286
aI5686
aI258
aI2019
aI7244
aI14187
aI7165
aI8282
aI13899
aI12751
aI14520
aI10495
aI5344
aI6214
aI6310
aI6037
aI12477
aI13511
aI5722
aI9315
aI5564
aI8922
aI8651
aI11328
aI12334
aI3938
aI9203
aI3576
aI12794
aI2861
aI4738
aI13531
aI9391
aI4820
aI8385
aI7558
aI3162
aI175
aI10619
aI8466
aI12680
aI9134
aI3305
aI5174
aI7536
aI3273
aI10298
aI7736
aI11846
aI7872
aI3924
aI12520
aI5183
aI13112
aI7752
aI1882
aI4412
aI4771
aI10863
aI6961
aI8273
aI9731
aI11624
aI7992
aI6780
aI1104
aI13735
aI14404
aI14657
aI2639
aI11238
aI8544
aI9840
aI2357
aI2227
aI7753
aI13538
aI12421
aI12110
aI155
aI885
aI2177
aI10610
aI7725
aI13126
aI12460
aI5419
aI10170
aI4287
aI3959
aI4759
aI8956
aI2968
aI10923
aI12980
aI4529
aI7735
aI6524
aI4249
aI569
aI1442
aI13540
aI9849
aI2567
aI14677
aI426
aI3388
aI10959
aI14149
aI1749
aI6506
aI5690
aI7315
aI13512
aI10848
aI12139
aI7759
aI13228
aI9570
aI7024
aI13336
aI13005
aI8555
aI14148
aI11147
aI6507
aI12990
aI8399
aI1106
aI427
aI3774
aI11916
aI7632
aI2583
aI14221
aI10388
aI2862
aI10173
aI13522
aI1666
aI8632
aI4050
aI13349
aI13243
aI8579
aI9321
aI7047
aI7738
aI1716
aI12614
aI13353
aI8546
aI3966
aI13356
aI13226
aI10606
aI8661
aI8715
aI11782
aI1512
aI1381
aI13845
aI1158
aI122
aI11675
aI11972
aI11802
aI4531
aI10624
aI2718
aI15047
aI7314
aI4045
aI5023
aI12592
aI10762
aI4686
aI6770
aI13492
aI9655
aI12260
aI7851
aI6350
aI6776
aI4722
aI4914
aI232
aI11153
aI15025
aI4751
aI8586
aI13366
aI9461
aI8148
aI4292
aI2601
aI6812
aI4791
aI8874
aI6190
aI5861
aI4785
aI9745
aI6422
aI3607
aI5094
aI7603
aI10084
aI8161
aI7952
aI8003
aI6586
aI2770
aI11849
aI6789
aI9299
aI8728
aI11169
aI2694
aI5327
aI1170
aI13458
aI14181
aI3354
aI7009
aI6655
aI2122
aI7443
aI2683
aI11810
aI13521
aI9768
aI11375
aI335
aI3977
aI13072
aI3293
aI5328
aI8585
aI13071
aI13073
aI4748
aI9013
aI7663
aI5680
aI7078
aI12103
aI1328
aI211
aI11336
aI11457
aI562
aI5551
aI7590
aI10454
aI1892
aI13740
aI9917
aI8364
aI6607
aI8445
aI13038
aI13480
aI14427
aI10101
aI7164
aI12950
aI14132
aI13357
aI3826
aI2230
aI13465
aI9397
aI3988
aI9689
aI13364
aI1033
aI13210
aI13254
aI5795
aI7086
aI13023
aI13145
aI11112
aI13328
aI5212
aI1717
aI2489
aI787
aI14682
aI1485
aI8291
aI2697
aI429
aI11374
aI10819
aI6077
aI3028
aI6660
aI11130
aI2945
aI13943
aI8747
aI6147
aI9125
aI385
aI12938
aI4962
aI11183
aI8831
aI13948
aI4399
aI12193
aI13390
aI3759
aI10270
aI9605
aI3760
aI3867
aI3268
aI15023
aI13251
aI1220
aI13358
aI8746
aI4108
aI4723
aI2608
aI2241
aI14655
aI13215
aI7228
aI3128
aI13925
aI353
aI3926
aI11095
aI5253
aI11073
aI9541
aI12836
aI12156
aI6564
aI13673
aI4766
aI6794
aI13417
aI2898
aI8287
aI13690
aI9259
aI1078
aI5995
aI759
aI9967
aI10083
aI9482
aI5947
aI13582
aI6188
aI886
aI8691
aI7846
aI1973
aI14570
aI9429
aI8376
aI4940
aI6828
aI10043
aI3075
aI151
aI2315
aI6581
aI9290
aI14620
aI5581
aI11835
aI10901
aI12350
aI10337
aI9300
aI357
aI8311
aI3071
aI4019
aI4077
aI4411
aI3613
aI2197
aI14696
aI9946
aI4409
aI8976
aI4013
aI5499
aI5812
aI10243
aI3143
aI12062
aI14041
aI4892
aI13434
aI1498
aI4369
aI13371
aI5736
aI7625
aI4366
aI3272
aI3176
aI11911
aI2124
aI3508
aI3735
aI13942
aI12993
aI3517
aI12123
aI11834
aI14613
aI12189
aI13128
aI7503
aI8368
aI11491
aI6341
aI11906
aI6351
aI14880
aI8794
aI6701
aI11420
aI3346
aI13855
aI4913
aI14676
aI653
aI7619
aI6124
aI786
aI8415
aI624
aI12687
aI12138
aI1812
aI6811
aI13006
aI8107
aI7771
aI4367
aI1312
aI9476
aI4513
aI13291
aI2621
aI12406
aI4415
aI14825
aI7460
aI9886
aI3950
aI10203
aI2620
aI6940
aI9795
aI2767
aI5515
aI3726
aI8674
aI4124
aI4691
aI1437
aI14505
aI8441
aI9696
aI6914
aI5957
aI8584
aI11338
aI2048
aI2564
aI14668
aI11461
aI1160
aI14934
aI3186
aI10903
aI9989
aI3663
aI9409
aI14989
aI3712
aI13278
aI5517
aI10399
aI7437
aI6050
aI4779
aI11998
aI11325
aI12958
aI8339
aI2805
aI1881
aI6256
aI2182
aI7147
aI7593
aI5487
aI6809
aI11999
aI5501
aI9786
aI9441
aI15062
aI8335
aI14405
aI3567
aI9828
aI2865
aI9465
aI497
aI10910
aI10702
aI6913
aI3930
aI9523
aI14526
aI11372
aI3393
aI5127
aI8217
aI4947
aI9952
aI3087
aI6797
aI4770
aI6921
aI3782
aI9991
aI12562
aI13717
aI6772
aI4692
aI7096
aI2074
aI9060
aI14085
aI2231
aI5287
aI6799
aI4772
aI14725
aI11482
aI7715
aI7782
aI10274
aI9774
aI9438
aI2078
aI14634
aI2887
aI12484
aI13048
aI12537
aI5196
aI4741
aI668
aI11848
aI8873
aI2897
aI14806
aI10283
aI13572
aI12788
aI6979
aI5029
aI9156
aI4329
aI7909
aI4434
aI10469
aI13054
aI2695
aI2692
aI3637
aI13170
aI14387
aI11124
aI8495
aI10760
aI5788
aI2776
aI5559
aI1959
aI13129
aI8994
aI11154
aI13050
aI7280
aI6257
aI6258
aI4761
aI11453
aI4212
aI10950
aI14201
aI14922
aI14755
aI4018
aI59
aI11120
aI12383
aI5160
aI2215
aI71
aI1896
aI13923
aI7823
aI6949
aI4739
aI8995
aI2117
aI14376
aI9039
aI6234
aI10515
aI7642
aI11714
aI14
aI2102
aI14399
aI15051
aI8739
aI4433
aI11752
aI5025
aI2714
aI10228
aI13250
aI4285
aI3036
aI7294
aI10749
aI12248
aI3353
aI13164
aI14380
aI2777
aI8421
aI10025
aI7911
aI4273
aI12812
aI4534
aI10524
aI4097
aI8494
aI14374
aI8980
aI3542
aI2211
aI613
aI6785
aI7504
aI4177
aI124
aI12666
aI6462
aI9001
aI13697
aI814
aI9044
aI10595
aI9854
aI12024
aI12652
aI11160
aI3223
aI11324
aI10026
aI1582
aI14738
aI14553
aI5463
aI73
aI5366
aI984
aI6879
aI12365
aI14209
aI11535
aI3644
aI2773
aI8408
aI4641
aI6752
aI4107
aI11620
aI11621
aI189
aI911
aI13304
aI4219
aI12869
aI6095
aI3715
aI14894
aI4028
aI5325
aI10421
aI13737
aI3047
aI5273
aI9018
aI5719
aI7410
aI13966
aI13123
aI15067
aI991
aI7796
aI1620
aI4130
aI2598
aI11520
aI14909
aI11892
aI3494
aI14381
aI2642
aI9329
aI2668
aI8975
aI13920
aI9026
aI10227
aI7179
aI10361
aI14474
aI13293
aI4170
aI4281
aI12019
aI8724
aI4297
aI2163
aI10638
aI14175
aI4211
aI2179
aI10543
aI7733
aI10984
aI8414
aI3630
aI10591
aI7732
aI11708
aI3117
aI10956
aI2134
aI6823
aI10031
aI8565
aI14844
aI2775
aI2689
aI15079
aI11480
aI12101
aI13271
aI13264
aI4632
aI1715
aI13935
aI4233
aI3947
aI8041
aI10532
aI2691
aI4191
aI10699
aI10500
aI10364
aI4338
aI2316
aI7327
aI7645
aI8782
aI4906
aI9628
aI5815
aI7691
aI1180
aI6324
aI8120
aI10572
aI1584
aI12861
aI8852
aI11362
aI2424
aI13700
aI14706
aI9985
aI6316
aI4410
aI15077
aI2017
aI11763
aI10358
aI7143
aI11753
aI12149
aI581
aI11865
aI13213
aI14212
aI4168
aI7565
aI5828
aI8718
aI15066
aI8982
aI7046
aI14697
aI7145
aI7842
aI700
aI10831
aI11608
aI12561
aI7513
aI982
aI11691
aI14889
aI11249
aI10240
aI5932
aI15068
aI11534
aI10690
aI10943
aI4171
aI4815
aI5292
aI11174
aI7908
aI11515
aI13135
aI14736
aI1380
aI6290
aI292
aI8670
aI10973
aI10664
aI8247
aI13197
aI13262
aI5634
aI11062
aI14926
aI15048
aI12543
aI10601
aI12164
aI12533
aI9490
aI5846
aI1650
aI10192
aI2605
aI2503
aI2607
aI7895
aI2024
aI8119
aI13898
aI3720
aI7133
aI7707
aI1161
aI4087
aI3625
aI4746
aI11356
aI4547
aI1659
aI7211
aI8815
aI14827
aI6863
aI621
aI8603
aI6888
aI8493
aI8545
aI11754
aI7031
aI5853
aI2378
aI5878
aI361
aI5054
aI4939
aI12300
aI8785
aI13070
aI7253
aI10050
aI12908
aI12028
aI1616
aI9983
aI10992
aI12370
aI7374
aI1690
aI10410
aI15069
aI7306
aI7883
aI1793
aI2597
aI12265
aI15078
aI7658
aI14784
aI10626
aI10378
aI15071
aI4228
aI12205
aI5808
aI8488
aI10391
aI7785
aI8933
aI7180
aI10512
aI7121
aI5831
aI1786
aI906
aI2379
aI6858
aI6924
aI14414
aI14462
aI4184
aI15110
aI10636
aI3673
aI7293
aI11751
aI3266
aI5961
aI6985
aI11180
aI4753
aI4533
aI10771
aI15100
aI15049
aI13253
aI583
aI12528
aI14254
aI4749
aI9878
aI11161
aI8095
aI9043
aI6991
aI4757
aI11138
aI4891
aI2609
aI3615
aI8600
aI7539
aI4246
aI7265
aI10656
aI11755
aI6705
aI11674
aI4696
aI14418
aI11411
aI15101
aI7873
aI1438
aI11205
aI3316
aI10398
aI8676
aI9900
aI951
aI13185
aI3791
aI4777
aI7777
aI5915
aI539
aI3180
aI8677
aI7639
aI1441
aI11386
aI2013
aI8099
aI12604
aI7845
aI14420
aI10340
aI13043
aI10118
aI1588
aI1156
aI6804
aI130
aI8988
aI6846
aI4795
aI4493
aI10436
aI10078
aI12686
aI3364
aI6707
aI5028
aI12807
aI13764
aI4699
aI3902
aI8255
aI5159
aI6891
aI8259
aI10600
aI4728
aI10183
aI487
aI3122
aI4550
aI4798
aI237
aI7045
aI4242
aI13181
aI8216
aI1327
aI12218
aI3733
aI13372
aI13075
aI7440
aI2205
aI14856
aI7757
aI5841
aI9732
aI14837
aI8622
aI4826
aI10350
aI7810
aI6343
aI11187
aI5158
aI8828
aI9390
aI1628
aI6504
aI7408
aI3409
aI10843
aI2098
aI7414
aI9477
aI13166
aI14764
aI13053
aI2144
aI2032
aI13052
aI8252
aI6984
aI14658
aI498
aI3889
aI2149
aI2515
aI8736
aI12671
aI10199
aI8937
aI1705
aI3978
aI12780
aI10058
aI7197
aI11477
aI6164
aI11930
aI12250
aI4058
aI3605
aI9417
aI9730
aI7761
aI1664
aI9475
aI3361
aI3554
aI8829
aI2560
aI5030
aI11293
aI8985
aI7886
aI9460
aI11365
aI3352
aI8223
aI4180
aI9597
aI10995
aI2135
aI11409
aI8090
aI928
aI9003
aI14843
aI12632
aI12633
aI10369
aI12224
aI6221
aI9342
aI10477
aI5580
aI7722
aI9615
aI1556
aI723
aI9418
aI2501
aI8492
aI14200
aI2170
aI10213
aI12873
aI14822
aI7043
aI10570
aI3635
aI4280
aI14893
aI12848
aI9898
aI12423
aI10598
aI4710
aI10513
aI7681
aI4700
aI2851
aI10635
aI1004
aI8783
aI717
aI14174
aI7386
aI10061
aI10437
aI10000
aI7176
aI6236
aI5483
aI12153
aI10100
aI1379
aI12111
aI2010
aI12555
aI12556
aI13376
aI4559
aI3593
aI4577
aI4518
aI10190
aI13397
aI2716
aI3448
aI12877
aI14271
aI1999
aI7635
aI13647
aI2990
aI7318
aI2119
aI218
aI8101
aI1810
aI4323
aI2196
aI2093
aI1283
aI4603
aI8030
aI4562
aI11757
aI15029
aI3811
aI2206
aI3846
aI1580
aI13844
aI14841
aI13413
aI4118
aI8010
aI2091
aI2781
aI8006
aI8029
aI10642
aI9095
aI12849
aI2086
aI2080
aI7360
aI2578
aI7775
aI12572
aI7582
aI6739
aI13466
aI13301
aI4358
aI11625
aI9517
aI10299
aI12523
aI4379
aI10960
aI8650
aI13292
aI10711
aI12868
aI13044
aI6999
aI1579
aI913
aI9883
aI7186
aI11875
aI8502
aI9114
aI2725
aI11598
aI4279
aI4628
aI10250
aI7835
aI4188
aI2488
aI14247
aI2265
aI10857
aI7017
aI8253
aI1663
aI5107
aI8697
aI12553
aI5157
aI12554
aI11055
aI206
aI7275
aI14792
aI4277
aI7001
aI1363
aI2653
aI10510
aI12862
aI4572
aI8869
aI9151
aI7612
aI9091
aI7299
aI4539
aI7192
aI11788
aI7094
aI1771
aI3658
aI9873
aI5038
aI7930
aI4593
aI12157
aI13119
aI13246
aI8804
aI6381
aI11950
aI13087
aI4763
aI10698
aI6318
aI4644
aI4187
aI12041
aI9623
aI8146
aI14481
aI6565
aI8021
aI7938
aI4006
aI4682
aI2469
aI1325
aI2257
aI4589
aI11301
aI6593
aI2492
aI11948
aI14037
aI12269
aI4814
aI8155
aI13086
aI6792
aI12605
aI4905
aI11694
aI9610
aI10291
aI11470
aI3396
aI4530
aI12367
aI13202
aI4685
aI13294
aI6844
aI14465
aI6753
aI8056
aI3835
aI7277
aI12527
aI6717
aI8442
aI11463
aI5989
aI8948
aI15061
aI14831
aI7840
aI8819
aI5991
aI7276
aI8131
aI11894
aI10132
aI834
aI6715
aI10640
aI2702
aI11078
aI4335
aI6282
aI2726
aI4275
aI2262
aI6114
aI6098
aI5440
aI8425
aI14441
aI10895
aI4407
aI14274
aI12311
aI11061
aI11787
aI13804
aI5835
aI9552
aI13937
aI9349
aI1917
aI10242
aI7804
aI8504
aI4658
aI6539
aI7575
aI6970
aI14498
aI11958
aI1644
aI5906
aI7907
aI367
aI12142
aI6277
aI10630
aI2815
aI10502
aI13302
aI4195
aI14002
aI3120
aI8827
aI3370
aI1952
aI14901
aI7583
aI12329
aI1359
aI12204
aI9884
aI7433
aI5772
aI1551
aI14226
aI14954
aI8823
aI7821
aI12828
aI1102
aI5529
aI3480
aI15084
aI2600
aI938
aI4400
aI8004
aI14397
aI8395
aI8152
aI950
aI7776
aI12626
aI14720
aI9336
aI7535
aI1880
aI12440
aI7359
aI14217
aI4688
aI2167
aI7808
aI8824
aI9395
aI8983
aI5856
aI496
aI9596
aI10049
aI6220
aI5752
aI1365
aI8354
aI3875
aI1568
aI10004
aI3917
aI2125
aI7313
aI11747
aI10175
aI7107
aI6206
aI7986
aI4302
aI1387
aI11058
aI11171
aI14939
aI4166
aI7755
aI12829
aI4540
aI8996
aI12511
aI9511
aI8832
aI1369
aI440
aI15103
aI13258
aI15027
aI12946
aI4810
aI14092
aI14504
aI8657
aI485
aI14511
aI11903
aI12867
aI2581
aI12564
aI10154
aI1440
aI11163
aI6904
aI10530
aI11732
aI12422
aI13051
aI895
aI12641
aI7439
aI6860
aI8449
aI2595
aI9033
aI3116
aI4801
aI10498
aI2667
aI14704
aI13367
aI3415
aI7048
aI524
aI10494
aI14698
aI850
aI3007
aI13138
aI10558
aI10186
aI6276
aI4368
aI8136
aI228
aI4036
aI1645
aI10416
aI334
aI248
aI13309
aI9032
aI1397
aI1475
aI8987
aI15001
aI3923
aI2592
aI5251
aI8655
aI15065
aI11783
aI7696
aI7973
aI12875
aI8400
aI2633
aI2494
aI14933
aI10319
aI13773
aI14999
aI10763
aI13039
aI2052
aI10847
aI4380
aI12252
aI4736
aI9950
aI11326
aI11377
aI7227
aI10917
aI12685
aI425
aI9448
aI4788
aI12860
aI8346
aI8587
aI4094
aI366
aI3781
aI2222
aI12245
aI2194
aI712
aI9126
aI2218
aI10715
aI4848
aI12117
aI1085
aI3247
aI10383
aI11113
aI1708
aI376
aI3249
aI6301
aI14506
aI2112
aI2973
aI1338
aI12498
aI1395
aI120
aI15075
aI2055
aI6062
aI11979
aI5162
aI7717
aI6631
aI11606
aI7833
aI11877
aI7943
aI5968
aI493
aI6222
aI13194
aI5490
aI3984
aI3027
aI2131
aI6800
aI4774
aI13639
aI2734
aI2965
aI4093
aI6962
aI4856
aI6295
aI11825
aI11596
aI10374
aI12254
aI2452
aI2449
aI10817
aI15031
aI231
aI3971
aI3799
aI3807
aI7764
aI7520
aI713
aI9895
aI597
aI1037
aI7427
aI7708
aI10251
aI6960
aI4304
aI2226
aI10136
aI7146
aI655
aI1214
aI724
aI11286
aI10887
aI5636
aI11607
aI10059
aI12183
aI7751
aI13464
aI2960
aI10646
aI8117
aI7832
aI13111
aI10496
aI625
aI13811
aI1460
aI13424
aI3418
aI7572
aI656
aI12433
aI11200
aI7913
aI10467
aI3725
aI8830
aI1310
aI4489
aI8910
aI10647
aI11718
aI11157
aI1634
aI12781
aI117
aI7918
aI2467
aI14896
aI13345
aI6803
aI14726
aI1218
aI10505
aI14438
aI7571
aI10191
aI538
aI10418
aI7492
aI10375
aI4026
aI9497
aI14052
aI2094
aI1847
aI4196
aI3575
aI479
aI1572
aI13489
aI14776
aI13033
aI2916
aI14342
aI3335
aI4578
aI6744
aI10221
aI4974
aI4676
aI7182
aI9503
aI3141
aI4625
aI12086
aI14846
aI10005
aI5975
aI892
aI523
aI5079
aI9330
aI4927
aI13779
aI9948
aI12434
aI10103
aI47
aI11769
aI3010
aI6072
aI470
aI15017
aI2319
aI11247
aI2351
aI13719
aI695
aI349
aI2536
aI3008
aI4545
aI7177
aI5549
aI5035
aI2158
aI11880
aI4564
aI7919
aI5267
aI12645
aI9268
aI10732
aI4899
aI330
aI6101
aI1090
aI4543
aI10363
aI955
aI14993
aI6869
aI912
aI3677
aI3714
aI11318
aI6967
aI4306
aI2910
aI4535
aI4039
aI2161
aI2647
aI7914
aI14823
aI4776
aI6983
aI401
aI4677
aI8508
aI542
aI8133
aI14705
aI2900
aI10301
aI7906
aI10590
aI6833
aI1543
aI7417
aI14190
aI7418
aI11630
aI4730
aI12779
aI3436
aI3906
aI7904
aI14996
aI5585
aI11960
aI8993
aI3945
aI6370
aI437
aI13727
aI8693
aI172
aI1179
aI11065
aI9801
aI11540
aI9780
aI11072
aI1596
aI6076
aI11094
aI11967
aI10899
aI1750
aI3317
aI13416
aI9964
aI5369
aI9709
aI5238
aI5402
aI4355
aI3359
aI1924
aI12436
aI11639
aI11811
aI4787
aI179
aI8627
aI3233
aI118
aI5446
aI7305
aI5235
aI8637
aI11231
aI5931
aI648
aI14413
aI15058
aI5528
aI623
aI11545
aI11721
aI3068
aI1657
aI599
aI11758
aI7767
aI5242
aI650
aI11518
aI2175
aI5077
aI3153
aI53
aI642
aI8063
aI13593
aI10184
aI8237
aI9486
aI12727
aI11715
aI1361
aI817
aI2614
aI3387
aI6380
aI7654
aI7336
aI7687
aI9907
aI11808
aI13643
aI4907
aI10998
aI5530
aI9889
aI3193
aI894
aI7876
aI14232
aI14284
aI3197
aI14401
aI3777
aI8460
aI5400
aI6180
aI8941
aI225
aI9172
aI14280
aI10352
aI3503
aI471
aI9970
aI2774
aI14243
aI7129
aI5594
aI9070
aI12352
aI8813
aI1615
aI6643
aI1149
aI183
aI4832
aI5453
aI12055
aI9381
aI2229
aI14160
aI12705
aI12711
aI11709
aI13912
aI5748
aI8629
aI14637
aI6498
aI9388
aI3695
aI3765
aI5119
aI8786
aI1258
aI3588
aI1314
aI10625
aI13733
aI14561
aI11443
aI9614
aI13835
aI10864
aI1053
aI4912
aI14431
aI8808
aI9281
aI10092
aI11202
aI7953
aI12349
aI13363
aI11547
aI5422
aI3052
aI6642
aI10970
aI3495
aI5668
aI6567
aI444
aI1907
aI14567
aI13648
aI11557
aI14535
aI5965
aI4879
aI10342
aI7861
aI9712
aI9769
aI12856
aI6793
aI8358
aI5151
aI12708
aI11689
aI8882
aI12704
aI11304
aI12799
aI960
aI108
aI2749
aI7426
aI11314
aI1646
aI6169
aI6007
aI9273
aI13839
aI3062
aI2690
aI4971
aI3129
aI7811
aI11433
aI13683
aI1671
aI6024
aI9077
aI6388
aI6025
aI5838
aI659
aI13049
aI11768
aI6590
aI9913
aI5301
aI13775
aI3127
aI13919
aI1922
aI8170
aI4134
aI1292
aI5682
aI11410
aI3556
aI10756
aI6536
aI7142
aI5203
aI7783
aI5758
aI6528
aI662
aI6958
aI7167
aI12074
aI12960
aI3291
aI12690
aI9831
aI604
aI3739
aI14075
aI13567
aI9097
aI11854
aI13847
aI4158
aI3216
aI9428
aI6085
aI576
aI12284
aI14134
aI14115
aI7926
aI1134
aI8480
aI8467
aI3118
aI14356
aI9779
aI10816
aI5934
aI7770
aI1991
aI9272
aI14540
aI5014
aI2528
aI5444
aI12409
aI4477
aI2969
aI7706
aI12457
aI1655
aI11895
aI13878
aI14128
aI4417
aI14129
aI9638
aI634
aI2079
aI7462
aI6036
aI7830
aI10407
aI8896
aI11125
aI14695
aI3709
aI11266
aI14699
aI9344
aI3563
aI10837
aI2882
aI10706
aI4167
aI9997
aI5670
aI3932
aI6513
aI1278
aI1618
aI663
aI13784
aI640
aI1200
aI6786
aI11897
aI12468
aI1318
aI7161
aI8686
aI6300
aI4163
aI4308
aI5741
aI11497
aI7523
aI13831
aI1139
aI5012
aI449
aI8162
aI323
aI3666
aI3961
aI14355
aI7866
aI3989
aI4831
aI11259
aI7813
aI5093
aI9109
aI7445
aI5194
aI11142
aI3264
aI1818
aI5101
aI9925
aI3623
aI9101
aI2742
aI7395
aI2917
aI3284
aI8522
aI2521
aI5574
aI9830
aI8846
aI8169
aI11944
aI9379
aI674
aI6433
aI9345
aI266
aI1938
aI9343
aI12021
aI13471
aI3456
aI12079
aI11257
aI187
aI4466
aI1701
aI9367
aI6658
aI3728
aI3032
aI9711
aI3942
aI8208
aI6116
aI9767
aI1925
aI12585
aI8548
aI6495
aI4317
aI9201
aI11669
aI12724
aI12354
aI11468
aI3745
aI8328
aI12905
aI7671
aI12872
aI12969
aI1989
aI5759
aI105
aI12587
aI13196
aI8361
aI10703
aI9906
aI10441
aI3362
aI3983
aI9473
aI2556
aI12141
aI12301
aI4224
aI12008
aI3837
aI4494
aI12975
aI2674
aI13158
aI14794
aI5250
aI6894
aI14935
aI11527
aI9649
aI10511
aI7882
aI11935
aI2006
aI13927
aI12661
aI3684
aI10246
aI12888
aI5649
aI241
aI2075
aI2936
aI14123
aI6641
aI14469
aI7712
aI7286
aI10314
aI3585
aI5224
aI5492
aI5401
aI11211
aI5588
aI4717
aI14153
aI520
aI9771
aI14515
aI3161
aI4996
aI10573
aI13381
aI13618
aI12321
aI2089
aI338
aI11364
aI9645
aI15035
aI3813
aI9618
aI12672
aI12058
aI6405
aI8
aI1927
aI10793
aI12095
aI14241
aI12120
aI3485
aI7627
aI11867
aI6648
aI12392
aI2943
aI10499
aI2847
aI14471
aI13509
aI5321
aI501
aI6943
aI14156
aI14908
aI10741
aI9695
aI13663
aI1281
aI766
aI5056
aI37
aI4486
aI13768
aI8843
aI10434
aI5698
aI7977
aI13430
aI13646
aI2011
aI11814
aI2042
aI10753
aI2872
aI3964
aI8269
aI8263
aI6160
aI11168
aI8163
aI14523
aI12258
aI6162
aI14101
aI13452
aI4321
aI12399
aI2198
aI9458
aI12033
aI1339
aI4020
aI7413
aI8911
aI6142
aI7242
aI7289
aI13849
aI9176
aI8165
aI4721
aI4863
aI12549
aI2828
aI11441
aI12998
aI8932
aI12066
aI13880
aI7556
aI1444
aI4066
aI286
aI7979
aI14360
aI7401
aI1185
aI6402
aI7366
aI15095
aI2542
aI13569
aI3513
aI15005
aI7436
aI5618
aI12063
aI4674
aI534
aI14208
aI3140
aI7529
aI14314
aI1251
aI15094
aI13680
aI262
aI2530
aI7530
aI15010
aI8973
aI2904
aI13527
aI12802
aI14711
aI3078
aI3490
aI2541
aI12011
aI2810
aI7461
aI2043
aI14473
aI884
aI395
aI9993
aI14089
aI8484
aI14747
aI8625
aI14573
aI9140
aI10224
aI5329
aI11232
aI4732
aI2507
aI1827
aI14105
aI11400
aI3529
aI7604
aI372
aI11474
aI7739
aI2025
aI5502
aI519
aI7720
aI2168
aI1878
aI4080
aI14563
aI9664
aI9756
aI13288
aI9216
aI8264
aI14521
aI7454
aI9738
aI5537
aI2238
aI4034
aI3234
aI8266
aI8285
aI12973
aI6706
aI4756
aI14459
aI6791
aI12105
aI10544
aI3038
aI14619
aI12090
aI13818
aI14294
aI1054
aI4423
aI11209
aI7005
aI12128
aI13425
aI11032
aI6934
aI2026
aI10265
aI12331
aI8298
aI570
aI14023
aI3794
aI5088
aI14007
aI4406
aI6461
aI4288
aI3378
aI10151
aI3600
aI14478
aI9221
aI5307
aI5354
aI14455
aI3555
aI6308
aI12683
aI11813
aI5598
aI5936
aI13763
aI3773
aI1558
aI3758
aI5021
aI3603
aI3604
aI2037
aI8875
aI14378
aI7341
aI2159
aI8225
aI14131
aI3785
aI7961
aI4146
aI2344
aI12658
aI356
aI3302
aI2524
aI618
aI1691
aI1206
aI5210
aI851
aI156
aI1809
aI5055
aI14602
aI14529
aI9971
aI1141
aI8512
aI13998
aI11415
aI371
aI3280
aI7879
aI13782
aI7407
aI11067
aI2376
aI5747
aI504
aI2429
aI5970
aI11767
aI627
aI10106
aI1544
aI11519
aI4079
aI1958
aI14826
aI8304
aI2484
aI13971
aI7740
aI230
aI580
aI1632
aI14524
aI1549
aI13323
aI5757
aI7766
aI14745
aI8979
aI3163
aI9354
aI11655
aI5394
aI5546
aI4675
aI14678
aI9099
aI3730
aI13287
aI5193
aI12784
aI3738
aI12814
aI14750
aI12619
aI1627
aI11109
aI4475
aI14545
aI3789
aI686
aI2554
aI10588
aI14205
aI14331
aI458
aI14591
aI5790
aI7915
aI9191
aI14962
aI6740
aI4611
aI2929
aI11941
aI4207
aI14323
aI785
aI10390
aI10695
aI10176
aI1178
aI2590
aI14227
aI1221
aI3001
aI7450
aI13968
aI1605
aI12087
aI273
aI728
aI12935
aI10038
aI8149
aI5858
aI8027
aI14839
aI2763
aI2623
aI12013
aI8150
aI10798
aI13379
aI10133
aI15012
aI6969
aI1915
aI2759
aI11349
aI4282
aI10957
aI10800
aI10802
aI9131
aI14460
aI11765
aI980
aI14273
aI4401
aI12698
aI4186
aI1431
aI1932
aI6458
aI6337
aI8903
aI4008
aI1755
aI11358
aI14891
aI6857
aI11760
aI2393
aI993
aI14873
aI13972
aI15040
aI11219
aI13674
aI14268
aI14771
aI4566
aI10661
aI2548
aI8088
aI3648
aI12084
aI740
aI1830
aI2282
aI2104
aI9716
aI4332
aI7073
aI10782
aI4294
aI1768
aI1642
aI11837
aI11075
aI10551
aI4470
aI9079
aI8953
aI7600
aI8566
aI10653
aI3164
aI2069
aI1563
aI1560
aI11627
aI10797
aI11513
aI191
aI2445
aI3492
aI1352
aI3475
aI9297
aI12186
aI6340
aI11815
aI903
aI3114
aI14641
aI8067
aI6544
aI9348
aI9347
aI1909
aI1619
aI11764
aI7868
aI9472
aI9340
aI5177
aI9491
aI11076
aI13332
aI788
aI5424
aI8249
aI5805
aI8012
aI8147
aI2141
aI13322
aI89
aI12565
aI1044
aI10461
aI9085
aI3406
aI11595
aI8302
aI13448
aI3425
aI1914
aI10518
aI3119
aI14872
aI14925
aI1681
aI8248
aI8974
aI7801
aI1020
aI11020
aI10975
aI12264
aI10169
aI1032
aI6950
aI2451
aI6597
aI1471
aI13218
aI4834
aI10102
aI10220
aI10174
aI13965
aI11991
aI3426
aI4581
aI12195
aI2278
aI1770
aI14300
aI3358
aI13319
aI13769
aI14898
aI6582
aI11836
aI2360
aI11291
aI10110
aI4560
aI6723
aI8905
aI4416
aI767
aI10728
aI4812
aI1446
aI8666
aI12648
aI4296
aI4853
aI12002
aI6400
aI5778
aI6081
aI6954
aI8516
aI10019
aI2576
aI3416
aI11924
aI12208
aI7185
aI3935
aI7990
aI14647
aI1685
aI14151
aI996
aI2221
aI7481
aI11864
aI514
aI13967
aI10426
aI4320
aI15004
aI398
aI12023
aI6709
aI13162
aI5314
aI6766
aI1536
aI7049
aI8050
aI3841
aI9253
aI7690
aI4576
aI13810
aI1167
aI11403
aI9240
aI7763
aI7994
aI5749
aI1752
aI7131
aI11294
aI3546
aI4147
aI10104
aI1848
aI8556
aI1963
aI13658
aI303
aI6355
aI6249
aI6557
aI3538
aI10641
aI13695
aI6730
aI6957
aI10501
aI11028
aI2143
aI12625
aI8156
aI981
aI7798
aI6251
aI2281
aI265
aI14605
aI382
aI5847
aI917
aI6248
aI769
aI6867
aI5809
aI9146
aI6366
aI14581
aI14980
aI687
aI8064
aI4897
aI11571
aI1242
aI6505
aI8362
aI7655
aI10506
aI13295
aI4350
aI14799
aI5713
aI3896
aI7682
aI3066
aI10428
aI1130
aI4931
aI7416
aI9498
aI7710
aI212
aI4148
aI4237
aI7270
aI10294
aI1746
aI965
aI7264
aI6619
aI8777
aI12880
aI13981
aI10523
aI15011
aI8810
aI8678
aI760
aI14286
aI10786
aI3883
aI6463
aI1366
aI7135
aI2279
aI1858
aI1021
aI10318
aI6018
aI11495
aI8086
aI9071
aI10577
aI8219
aI7897
aI7316
aI4878
aI10801
aI703
aI14756
aI5372
aI7254
aI4114
aI10528
aI11974
aI12659
aI13343
aI8496
aI12385
aI13085
aI10446
aI6211
aI12912
aI8297
aI13102
aI12375
aI11254
aI8121
aI4141
aI8044
aI14278
aI10162
aI1811
aI7149
aI6434
aI13807
aI12764
aI7116
aI3651
aI4397
aI4030
aI10480
aI3421
aI11487
aI196
aI1172
aI6545
aI14538
aI8348
aI5315
aI1317
aI7773
aI10126
aI2138
aI5539
aI6933
aI4394
aI11288
aI14882
aI2761
aI7309
aI778
aI11922
aI13339
aI1319
aI13930
aI6486
aI9078
aI10655
aI3606
aI4877
aI15081
aI1660
aI12094
aI14920
aI5351
aI2496
aI780
aI6876
aI7854
aI6533
aI859
aI8515
aI4449
aI7066
aI6795
aI696
aI8588
aI14927
aI14321
aI6424
aI7132
aI7772
aI5090
aI7774
aI9219
aI7127
aI14928
aI7479
aI1229
aI8436
aI13091
aI11962
aI933
aI3694
aI13212
aI593
aI11728
aI1633
aI9158
aI284
aI5857
aI5833
aI8112
aI3987
aI9244
aI10149
aI1451
aI1798
aI12313
aI4659
aI6763
aI11827
aI359
aI6559
aI4268
aI1815
aI4478
aI4886
aI1226
aI4326
aI14991
aI4443
aI8412
aI10430
aI11843
aI13988
aI3548
aI6332
aI4069
aI3717
aI4575
aI12662
aI12729
aI14770
aI295
aI9195
aI291
aI6291
aI10145
aI3755
aI11090
aI13089
aI12296
aI4333
aI1788
aI2136
aI11538
aI9130
aI9387
aI7787
aI9872
aI12821
aI2219
aI2203
aI15091
aI5793
aI7283
aI4622
aI5836
aI5829
aI3933
aI13024
aI10639
aI11292
aI9289
aI8514
aI3897
aI3751
aI3904
aI8947
aI721
aI4828
aI13915
aI15006
aI2114
aI8018
aI1779
aI14544
aI14635
aI12845
aI4904
aI3402
aI8031
aI13299
aI9002
aI9353
aI4263
aI2340
aI1356
aI11995
aI2352
aI6855
aI4901
aI4324
aI1071
aI5252
aI14398
aI1501
aI6720
aI6229
aI5534
aI8644
aI10247
aI7159
aI8594
aI4591
aI4322
aI13676
aI7296
aI4569
aI4861
aI12833
aI5089
aI11165
aI13092
aI6880
aI14005
aI3868
aI2403
aI1168
aI13715
aI2039
aI13265
aI8240
aI14892
aI299
aI9254
aI4811
aI14760
aI12050
aI12481
aI11195
aI5630
aI2659
aI8472
aI14971
aI12256
aI2312
aI1375
aI820
aI1680
aI5625
aI3802
aI12717
aI9194
aI4813
aI6824
aI2173
aI2485
aI8105
aI14919
aI11447
aI905
aI8129
aI4642
aI14976
aI1036
aI4189
aI11970
aI11733
aI8837
aI11954
aI7836
aI1074
aI1864
aI10663
aI8645
aI3859
aI8145
aI6472
aI4601
aI14667
aI4276
aI88
aI7815
aI10109
aI1140
aI11693
aI12051
aI14490
aI14988
aI2997
aI4361
aI3245
aI4841
aI9096
aI14302
aI9416
aI14924
aI6930
aI4402
aI4933
aI1245
aI12306
aI14975
aI6336
aI2311
aI3723
aI10287
aI12835
aI4639
aI14688
aI1978
aI6521
aI203
aI10497
aI10334
aI7050
aI1769
aI7649
aI3731
aI7853
aI4890
aI2292
aI10981
aI14987
aI6459
aI14080
aI4610
aI2137
aI6604
aI1739
aI3796
aI14456
aI4602
aI1774
aI3624
aI400
aI7279
aI1351
aI14815
aI10733
aI308
aI1372
aI13670
aI12131
aI1072
aI3543
aI11943
aI3453
aI10310
aI8898
aI14228
aI3634
aI10161
aI1367
aI6232
aI12762
aI7272
aI14787
aI1227
aI2118
aI8013
aI14006
aI8097
aI3431
aI5806
aI1322
aI10466
aI12772
aI11196
aI10489
aI12221
aI1122
aI1233
aI4844
aI2753
aI2289
aI3003
aI11857
aI4851
aI12472
aI14772
aI10201
aI12834
aI7067
aI4161
aI7570
aI4437
aI10683
aI1299
aI1334
aI10116
aI8552
aI1535
aI10365
aI7917
aI1043
aI14774
aI14689
aI1846
aI3404
aI15088
aI2284
aI11253
aI10128
aI10156
aI959
aI11992
aI1373
aI6735
aI4663
aI11312
aI7941
aI12168
aI7052
aI14650
aI1804
aI11917
aI2454
aI1996
aI9113
aI10209
aI7090
aI11225
aI14876
aI14318
aI13566
aI9326
aI6756
aI3805
aI4226
aI315
aI2233
aI14730
aI2115
aI4845
aI7743
aI4461
aI3809
aI14732
aI7102
aI4661
aI8589
aI14757
aI7656
aI6216
aI5908
aI11956
aI11644
aI7065
aI3479
aI397
aI10146
aI1890
aI3822
aI3458
aI8089
aI2652
aI14034
aI1333
aI11176
aI1374
aI5859
aI6757
aI4651
aI8743
aI363
aI8680
aI8243
aI4574
aI6736
aI10555
aI7483
aI7196
aI8186
aI14851
aI201
aI4665
aI5876
aI2105
aI13099
aI1679
aI10812
aI756
aI7689
aI9102
aI2160
aI10473
aI12546
aI13979
aI9169
aI12642
aI1851
aI4525
aI4452
aI272
aI9014
aI4649
aI10884
aI14494
aI1686
aI10311
aI8682
aI1330
aI15036
aI14719
aI13365
aI9337
aI4190
aI11486
aI4010
aI6242
aI2988
aI7216
aI9021
aI10155
aI5393
aI4664
aI13725
aI11977
aI3949
aI9177
aI5355
aI14513
aI5353
aI3478
aI8413
aI8699
aI4436
aI13427
aI7790
aI5951
aI2932
aI13260
aI13261
aI5091
aI6243
aI13661
aI10429
aI14977
aI11297
aI11323
aI7194
aI6906
aI8241
aI4156
aI5639
aI11068
aI66
aI8014
aI13716
aI318
aI6407
aI67
aI5467
aI776
aI7039
aI15033
aI2321
aI12818
aI13565
aI8779
aI8443
aI9053
aI10556
aI13426
aI7902
aI7044
aI14959
aI15030
aI8087
aI10701
aI1976
aI7489
aI10568
aI14957
aI8923
aI15015
aI4624
aI11367
aI6728
aI6442
aI15090
aI14810
aI8066
aI1920
aI5787
aI14762
aI11610
aI7209
aI8684
aI13283
aI6446
aI10181
aI7156
aI4573
aI11366
aI8005
aI14871
aI1844
aI7966
aI6546
aI2473
aI14163
aI2320
aI6406
aI770
aI1683
aI6240
aI4908
aI6925
aI4504
aI10712
aI11830
aI8077
aI7789
aI4590
aI9082
aI4479
aI9168
aI8518
aI13776
aI2417
aI11586
aI13752
aI2814
aI10675
aI10402
aI6839
aI4523
aI10130
aI1902
aI10122
aI9507
aI7274
aI13627
aI6454
aI7912
aI12544
aI8060
aI823
aI11454
aI7415
aI14877
aI93
aI1567
aI10490
aI14411
aI3817
aI10548
aI827
aI2570
aI6553
aI7252
aI4594
aI9081
aI4608
aI263
aI10481
aI7080
aI10539
aI6718
aI5591
aI2731
aI14432
aI255
aI1684
aI7954
aI11613
aI11494
aI4202
aI10576
aI15026
aI10714
aI13325
aI11645
aI13475
aI7802
aI4133
aI6886
aI13159
aI10168
aI10678
aI2066
aI1029
aI1252
aI7363
aI12277
aI537
aI4243
aI8571
aI13174
aI3842
aI15034
aI10575
aI4643
aI15080
aI10450
aI3899
aI6455
aI12244
aI2756
aI11526
aI10680
aI4934
aI223
aI12843
aI8079
aI14913
aI920
aI1648
aI10885
aI8601
aI14539
aI5985
aI4621
aI7726
aI4509
aI6414
aI9145
aI829
aI12825
aI14653
aI12722
aI6228
aI11024
aI3627
aI9876
aI8593
aI14164
aI10765
aI11786
aI13346
aI91
aI163
aI8293
aI12046
aI2437
aI2113
aI1841
aI7259
aI10230
aI824
aI4490
aI8204
aI11541
aI9488
aI7778
aI4866
aI2106
aI7311
aI195
aI10520
aI6510
aI2819
aI1797
aI4604
aI13193
aI12714
aI10440
aI11216
aI8692
aI6734
aI997
aI11298
aI6571
aI10129
aI12595
aI7148
aI7352
aI49
aI825
aI5116
aI5317
aI11590
aI10902
aI10965
aI11818
aI14333
aI7119
aI10766
aI10160
aI4210
aI10637
aI6321
aI10207
aI13678
aI1097
aI8737
aI6755
aI548
aI4160
aI15089
aI6620
aI6401
aI6438
aI247
aI7153
aI6260
aI12660
aI14645
aI7225
aI849
aI10958
aI11226
aI1217
aI6298
aI9117
aI10674
aI10210
aI1497
aI1364
aI7215
aI5978
aI999
aI7089
aI15093
aI9243
aI8033
aI4251
aI10583
aI14437
aI860
aI13990
aI11285
aI4583
aI4600
aI1320
aI13978
aI1187
aI7393
aI14902
aI1834
aI14162
aI6908
aI12769
aI10164
aI2573
aI10881
aI7955
aI4031
aI14930
aI958
aI7217
aI7464
aI9086
aI12143
aI3834
aI3692
aI11296
aI13063
aI1557
aI1377
aI1347
aI11227
aI5047
aI9492
aI4396
aI14845
aI14298
aI14890
aI6202
aI1225
aI14674
aI2713
aI15056
aI547
aI4585
aI1075
aI2729
aI12326
aI6606
aI14811
aI14965
aI13922
aI7730
aI12368
aI6853
aI13976
aI13656
aI4398
aI6203
aI12388
aI9599
aI205
aI6457
aI9093
aI14248
aI4312
aI2505
aI7424
aI13060
aI8526
aI10139
aI2669
aI12325
aI3749
aI11449
aI14329
aI812
aI2208
aI14907
aI13276
aI6854
aI10650
aI8338
aI2287
aI12548
aI4582
aI12819
aI5532
aI6460
aI14997
aI12656
aI8440
aI1386
aI8212
aI7317
aI4565
aI8999
aI10487
aI10613
aI2409
aI12933
aI10216
aI13383
aI7837
aI6519
aI13649
aI7284
aI12029
aI13614
aI2606
aI11976
aI4261
aI10820
aI12898
aI7951
aI11137
aI5914
aI11955
aI14973
aI10323
aI2739
aI12236
aI821
aI3874
aI14884
aI8945
aI13651
aI3898
aI11245
aI14493
aI6566
aI12830
aI9292
aI14881
aI2072
aI4217
aI7742
aI14874
aI7391
aI6466
aI10643
aI5526
aI14852
aI9515
aI202
aI8741
aI7085
aI7864
aI11012
aI6347
aI14918
aI13911
aI842
aI3537
aI14960
aI12100
aI8615
aI7333
aI10777
aI13691
aI10507
aI1901
aI8454
aI6397
aI1517
aI11159
aI8016
aI4376
aI4588
aI8614
aI7647
aI1966
aI3500
aI8330
aI6208
aI3701
aI11860
aI8553
aI14246
aI3876
aI10976
aI4216
aI12901
aI252
aI11221
aI11591
aI6996
aI4852
aI10200
aI4245
aI8181
aI31
aI15037
aI10336
aI10339
aI3856
aI7291
aI803
aI7104
aI4450
aI5527
aI4465
aI15046
aI4614
aI5767
aI2232
aI1561
aI8930
aI14680
aI8045
aI1499
aI13031
aI10552
aI1949
aI4948
aI1452
aI4902
aI8078
aI4646
aI6478
aI13751
aI772
aI1799
aI979
aI12056
aI11428
aI8621
aI5768
aI11472
aI12876
aI14161
aI7797
aI10789
aI4155
aI11577
aI7261
aI1972
aI12721
aI11402
aI2740
aI14972
aI6485
aI7297
aI10142
aI9144
aI12280
aI6724
aI15013
aI10384
aI5794
aI10791
aI579
aI1465
aI9504
aI3102
aI4385
aI2499
aI6864
aI11023
aI2330
aI10954
aI1326
aI3980
aI12290
aI2786
aI2456
aI922
aI13640
aI11963
aI5781
aI7838
aI9103
aI7141
aI6899
aI11284
aI1781
aI1678
aI3441
aI14981
aI4883
aI2784
aI4102
aI10929
aI8179
aI207
aI4671
aI8333
aI13989
aI10387
aI10322
aI2477
aI9100
aI10478
aI13975
aI4627
aI12281
aI13105
aI14911
aI4218
aI13156
aI7061
aI9627
aI4442
aI1439
aI1687
aI7469
aI667
aI6509
aI3054
aI6046
aI2737
aI13334
aI12358
aI4485
aI12542
aI14244
aI6636
aI4448
aI4440
aI4185
aI9598
aI14809
aI915
aI13994
aI13549
aI14910
aI2322
aI13795
aI9222
aI7650
aI6840
aI293
aI3502
aI12895
aI1829
aI14014
aI4220
aI4666
aI8065
aI13886
aI10401
aI10925
aI6296
aI12955
aI7728
aI13190
aI2276
aI13110
aI4631
aI4670
aI8197
aI7347
aI14032
aI13675
aI5950
aI2130
aI7079
aI2574
aI7867
aI5770
aI13745
aI6865
aI8748
aI2263
aI8116
aI12175
aI5633
aI204
aI7480
aI4579
aI13259
aI11803
aI6437
aI4570
aI4623
aI7064
aI7609
aI13602
aI6702
aI6322
aI12643
aI844
aI6200
aI11116
aI4526
aI14731
aI11164
aI13391
aI10519
aI4881
aI4215
aI5783
aI5820
aI213
aI2235
aI10360
aI6465
aI7184
aI11828
aI13121
aI13583
aI11572
aI12344
aI2391
aI6834
aI10611
aI14838
aI7969
aI13279
aI4270
aI998
aI13399
aI13711
aI9022
aI12740
aI7214
aI7140
aI6199
aI6237
aI12081
aI1136
aI11509
aI3732
aI15032
aI1510
aI10578
aI12160
aI11295
aI9090
aI2782
aI10725
aI14482
aI320
aI9148
aI8040
aI7686
aI1975
aI795
aI364
aI2082
aI1348
aI10197
aI11578
aI2760
aI12512
aI9055
aI10459
aI8384
aI830
aI9149
aI12343
aI2057
aI4307
aI246
aI11579
aI918
aI8530
aI1586
aI4214
aI8391
aI12471
aI4441
aI7273
aI4354
aI1787
aI5765
aI2385
aI14251
aI3836
aI7256
aI6154
aI192
aI4989
aI9122
aI14636
aI2272
aI6902
aI4546
aI13350
aI6474
aI5075
aI11688
aI5065
aI6389
aI9621
aI7678
aI11821
aI5182
aI1240
aI4706
aI10105
aI434
aI2954
aI14010
aI9263
aI4222
aI797
aI9960
aI8106
aI12600
aI1784
aI9494
aI3135
aI4957
aI1692
aI5100
aI6288
aI1635
aI1504
aI5256
aI1677
aI7210
aI11742
aI7822
aI4086
aI13389
aI9333
aI3471
aI10006
aI253
aI12844
aI2247
aI12130
aI9542
aI9128
aI4345
aI4656
aI1954
aI6760
aI2283
aI1731
aI10095
aI13235
aI10036
aI1060
aI10569
aI13125
aI5106
aI12655
aI948
aI1577
aI975
aI7981
aI10188
aI12389
aI2766
aI3747
aI5274
aI5377
aI13741
aI14229
aI3882
aI6487
aI13108
aI10439
aI10027
aI505
aI14348
aI13385
aI13037
aI4555
aI12928
aI11565
aI5371
aI2228
aI9578
aI8573
aI2108
aI2711
aI8617
aI14812
aI4711
aI13693
aI4316
aI2171
aI846
aI7652
aI6010
aI8289
aI12759
aI7653
aI10597
aI1792
aI12760
aI8028
aI6017
aI5606
aI638
aI7927
aI5456
aI13699
aI14417
aI499
aI5547
aI652
aI1215
aI12720
aI5146
aI902
aI13644
aI11587
aI13977
aI70
aI5085
aI1459
aI6398
aI1047
aI14293
aI8071
aI2710
aI12163
aI5933
aI13487
aI763
aI12978
aI419
aI8671
aI12444
aI654
aI1782
aI2483
aI8380
aI7749
aI11287
aI563
aI3269
aI6667
aI7674
aI11823
aI3314
aI5518
aI8052
aI6599
aI8420
aI8236
aI3181
aI7852
aI7248
aI6923
aI10565
aI11256
aI1041
aI3108
aI896
aI13232
aI7863
aI6313
aI4499
aI7038
aI8690
aI13671
aI13772
aI12838
aI3982
aI6192
aI11015
aI6558
aI9239
aI8710
aI6410
aI11004
aI177
aI14888
aI12487
aI13428
aI6585
aI14061
aI4223
aI7083
aI6838
aI897
aI3150
aI6376
aI10795
aI6187
aI1391
aI11000
aI1559
aI12932
aI12589
aI13757
aI4076
aI13626
aI10918
aI5293
aI10657
aI11699
aI2709
aI8290
aI10788
aI9903
aI8889
aI5245
aI9606
aI2793
aI5066
aI5521
aI3990
aI3322
aI8857
aI9705
aI1606
aI4145
aI6026
aI14315
aI5097
aI13712
aI2544
aI2818
aI10737
aI2
aI3374
aI12985
aI14124
aI3232
aI632
aI7780
aI3086
aI5459
aI14566
aI4910
aI4551
aI4007
aI5980
aI466
aI9864
aI3907
aI8890
aI14119
aI1247
aI11395
aI3968
aI6143
aI391
aI9356
aI9637
aI11605
aI14710
aI12974
aI13906
aI3908
aI4911
aI14700
aI2888
aI412
aI3198
aI12539
aI13414
aI5164
aI3909
aI1414
aI7933
aI8946
aI13310
aI8978
aI4662
aI1968
aI8705
aI14452
aI5299
aI7444
aI2764
aI1726
aI8642
aI1287
aI12348
aI588
aI5773
aI1203
aI7339
aI535
aI14388
aI8687
aI7615
aI5334
aI8521
aI14079
aI11317
aI1282
aI3319
aI12001
aI236
aI12591
aI3440
aI5186
aI3260
aI13338
aI7130
aI14311
aI9276
aI2984
aI3696
aI2684
aI2166
aI2288
aI3288
aI8689
aI11189
aI5543
aI908
aI12302
aI6111
aI3931
aI2350
aI12233
aI736
aI3698
aI645
aI641
aI9978
aI7544
aI9719
aI10065
aI12188
aI6429
aI11584
aI7521
aI1942
aI1940
aI10077
aI11583
aI21
aI10936
aI393
aI11002
aI6515
aI14536
aI12053
aI9287
aI8432
aI12080
aI3583
aI3653
aI12052
aI12213
aI7344
aI3767
aI5763
aI4004
aI1038
aI9940
aI9996
aI9930
aI2826
aI180
aI11696
aI11738
aI12003
aI11989
aI13333
aI11550
aI5015
aI12777
aI12151
aI7610
aI1894
aI9208
aI3156
aI8848
aI5796
aI11602
aI13826
aI5454
aI10284
aI8557
aI7419
aI10281
aI5247
aI15105
aI3138
aI7533
aI6535
aI6579
aI681
aI1195
aI8279
aI12809
aI12719
aI12091
aI3815
aI5629
aI1316
aI6130
aI8618
aI14172
aI8159
aI4835
aI11207
aI4082
aI6184
aI406
aI6708
aI7724
aI7587
aI101
aI682
aI675
aI8372
aI13114
aI3240
aI9225
aI20
aI5461
aI11673
aI12378
aI14194
aI7824
aI1424
aI14019
aI9553
aI7122
aI7398
aI3743
aI7025
aI5844
aI13455
aI13956
aI14599
aI10934
aI1050
aI9806
aI1944
aI12963
aI2675
aI10055
aI13785
aI7985
aI140
aI16
aI35
aI11273
aI13629
aI1943
aI3614
aI12785
aI6218
aI3486
aI2404
aI8907
aI2951
aI4930
aI5213
aI11311
aI3702
aI1095
aI12297
aI9260
aI1015
aI10306
aI2369
aI13622
aI5785
aI3693
aI3667
aI13685
aI10462
aI4301
aI3167
aI13224
aI1026
aI13335
aI9727
aI301
aI4527
aI3345
aI10691
aI387
aI12308
aI5033
aI7820
aI13082
aI9847
aI5096
aI12864
aI6274
aI6273
aI8382
aI10979
aI4521
aI14968
aI13150
aI7249
aI5818
aI11289
aI9015
aI14681
aI12597
aI2253
aI6263
aI826
aI904
aI12088
aI13823
aI4456
aI8239
aI12945
aI12944
aI3680
aI10651
aI13970
aI14781
aI5390
aI1934
aI2259
aI6953
aI10942
aI10594
aI4650
aI725
aI13631
aI2306
aI1912
aI2612
aI6123
aI11105
aI13384
aI2958
aI14751
aI11588
aI4120
aI13790
aI11961
aI13812
aI5865
aI13478
aI14320
aI13439
aI260
aI815
aI1150
aI10824
aI327
aI9959
aI12427
aI1301
aI3432
aI13932
aI1523
aI13694
aI11888
aI13481
aI2921
aI9593
aI2895
aI1898
aI14558
aI7212
aI13096
aI12926
aI3689
aI4714
aI10602
aI1764
aI1994
aI5678
aI2938
aI11631
aI13588
aI52
aI9154
aI11475
aI7372
aI14547
aI12805
aI2293
aI1805
aI11562
aI4868
aI5733
aI10709
aI14353
aI14260
aI6411
aI7885
aI12989
aI13027
aI10928
aI9522
aI5349
aI8704
aI509
aI14416
aI10631
aI4992
aI12892
aI5152
aI1138
aI12977
aI13080
aI1341
aI11985
aI12580
aI14097
aI10198
aI13786
aI14533
aI2128
aI11432
aI2127
aI14944
aI14754
aI8840
aI1005
aI937
aI13945
aI3405
aI5016
aI5050
aI3053
aI1051
aI13924
aI7660
aI2680
aI13623
aI1883
aI12174
aI9822
aI8173
aI5817
aI6676
aI8871
aI10193
aI4431
aI9646
aI12070
aI3303
aI9941
aI3629
aI452
aI1087
aI10509
aI11085
aI4864
aI2133
aI1696
aI589
aI328
aI13519
aI8283
a.